
main.elf:     file format elf32-tradlittlemips
main.elf


Disassembly of section .text:

00000000 <_ftext>:
/home/cs/nscscc2019/nscscc2019_release_v0.01/func_test_v0.01/soft/func/start.S:31
       0:	2408ffff 	li	t0,-1
/home/cs/nscscc2019/nscscc2019_release_v0.01/func_test_v0.01/soft/func/start.S:32
       4:	2408ffff 	li	t0,-1
/home/cs/nscscc2019/nscscc2019_release_v0.01/func_test_v0.01/soft/func/start.S:33
       8:	080000e0 	j	380 <locate>
/home/cs/nscscc2019/nscscc2019_release_v0.01/func_test_v0.01/soft/func/start.S:34
       c:	00000000 	nop
/home/cs/nscscc2019/nscscc2019_release_v0.01/func_test_v0.01/soft/func/start.S:37
      10:	3c088000 	lui	t0,0x8000
/home/cs/nscscc2019/nscscc2019_release_v0.01/func_test_v0.01/soft/func/start.S:38
      14:	25290001 	addiu	t1,t1,1
/home/cs/nscscc2019/nscscc2019_release_v0.01/func_test_v0.01/soft/func/start.S:39
      18:	01005025 	move	t2,t0
/home/cs/nscscc2019/nscscc2019_release_v0.01/func_test_v0.01/soft/func/start.S:40
      1c:	01ae5821 	addu	t3,t5,t6
/home/cs/nscscc2019/nscscc2019_release_v0.01/func_test_v0.01/soft/func/start.S:41
      20:	8d0c0000 	lw	t4,0(t0)
	...
/home/cs/nscscc2019/nscscc2019_release_v0.01/func_test_v0.01/soft/func/start.S:46
      ec:	3c088000 	lui	t0,0x8000
/home/cs/nscscc2019/nscscc2019_release_v0.01/func_test_v0.01/soft/func/start.S:47
      f0:	25290001 	addiu	t1,t1,1
/home/cs/nscscc2019/nscscc2019_release_v0.01/func_test_v0.01/soft/func/start.S:48
      f4:	01005025 	move	t2,t0
/home/cs/nscscc2019/nscscc2019_release_v0.01/func_test_v0.01/soft/func/start.S:49
      f8:	01ae5821 	addu	t3,t5,t6
/home/cs/nscscc2019/nscscc2019_release_v0.01/func_test_v0.01/soft/func/start.S:50
      fc:	8d0c0000 	lw	t4,0(t0)

00000100 <test_finish>:
/home/cs/nscscc2019/nscscc2019_release_v0.01/func_test_v0.01/soft/func/start.S:53
     100:	25080001 	addiu	t0,t0,1
/home/cs/nscscc2019/nscscc2019_release_v0.01/func_test_v0.01/soft/func/start.S:54
     104:	240900ff 	li	t1,255
/home/cs/nscscc2019/nscscc2019_release_v0.01/func_test_v0.01/soft/func/start.S:55
     108:	3c0abfaf 	lui	t2,0xbfaf
     10c:	354afff0 	ori	t2,t2,0xfff0
/home/cs/nscscc2019/nscscc2019_release_v0.01/func_test_v0.01/soft/func/start.S:56
     110:	ad490000 	sw	t1,0(t2)
/home/cs/nscscc2019/nscscc2019_release_v0.01/func_test_v0.01/soft/func/start.S:57
     114:	08000040 	j	100 <test_finish>
/home/cs/nscscc2019/nscscc2019_release_v0.01/func_test_v0.01/soft/func/start.S:58
     118:	00000000 	nop
/home/cs/nscscc2019/nscscc2019_release_v0.01/func_test_v0.01/soft/func/start.S:60
     11c:	3c088000 	lui	t0,0x8000
/home/cs/nscscc2019/nscscc2019_release_v0.01/func_test_v0.01/soft/func/start.S:61
     120:	25290001 	addiu	t1,t1,1
/home/cs/nscscc2019/nscscc2019_release_v0.01/func_test_v0.01/soft/func/start.S:62
     124:	01005025 	move	t2,t0
/home/cs/nscscc2019/nscscc2019_release_v0.01/func_test_v0.01/soft/func/start.S:63
     128:	01ae5821 	addu	t3,t5,t6
/home/cs/nscscc2019/nscscc2019_release_v0.01/func_test_v0.01/soft/func/start.S:64
     12c:	8d0c0000 	lw	t4,0(t0)
	...

00000380 <locate>:
/home/cs/nscscc2019/nscscc2019_release_v0.01/func_test_v0.01/soft/func/start.S:283
     380:	2404fc62 	li	a0,-926
/home/cs/nscscc2019/nscscc2019_release_v0.01/func_test_v0.01/soft/func/start.S:284
     384:	2405fc60 	li	a1,-928
/home/cs/nscscc2019/nscscc2019_release_v0.01/func_test_v0.01/soft/func/start.S:285
     388:	3c11bfaf 	lui	s1,0xbfaf
     38c:	3631f010 	ori	s1,s1,0xf010
/home/cs/nscscc2019/nscscc2019_release_v0.01/func_test_v0.01/soft/func/start.S:287
     390:	24090002 	li	t1,2
/home/cs/nscscc2019/nscscc2019_release_v0.01/func_test_v0.01/soft/func/start.S:288
     394:	240a0001 	li	t2,1
/home/cs/nscscc2019/nscscc2019_release_v0.01/func_test_v0.01/soft/func/start.S:289
     398:	3c130000 	lui	s3,0x0
/home/cs/nscscc2019/nscscc2019_release_v0.01/func_test_v0.01/soft/func/start.S:291
     39c:	ac890000 	sw	t1,0(a0)
/home/cs/nscscc2019/nscscc2019_release_v0.01/func_test_v0.01/soft/func/start.S:292
     3a0:	acaa0000 	sw	t2,0(a1)
/home/cs/nscscc2019/nscscc2019_release_v0.01/func_test_v0.01/soft/func/start.S:293
     3a4:	ae330000 	sw	s3,0(s1)
/home/cs/nscscc2019/nscscc2019_release_v0.01/func_test_v0.01/soft/func/start.S:295
     3a8:	3c100000 	lui	s0,0x0

000003ac <inst_test>:
/home/cs/nscscc2019/nscscc2019_release_v0.01/func_test_v0.01/soft/func/start.S:304
     3ac:	0c000454 	jal	1150 <n1_lui_test>
/home/cs/nscscc2019/nscscc2019_release_v0.01/func_test_v0.01/soft/func/start.S:305
     3b0:	00000000 	nop
/home/cs/nscscc2019/nscscc2019_release_v0.01/func_test_v0.01/soft/func/start.S:306
     3b4:	0c000162 	jal	588 <wait_1s>
/home/cs/nscscc2019/nscscc2019_release_v0.01/func_test_v0.01/soft/func/start.S:307
     3b8:	00000000 	nop
/home/cs/nscscc2019/nscscc2019_release_v0.01/func_test_v0.01/soft/func/start.S:314
     3bc:	0c0006e8 	jal	1ba0 <n2_addu_test>
/home/cs/nscscc2019/nscscc2019_release_v0.01/func_test_v0.01/soft/func/start.S:315
     3c0:	00000000 	nop
/home/cs/nscscc2019/nscscc2019_release_v0.01/func_test_v0.01/soft/func/start.S:316
     3c4:	0c000162 	jal	588 <wait_1s>
/home/cs/nscscc2019/nscscc2019_release_v0.01/func_test_v0.01/soft/func/start.S:317
     3c8:	00000000 	nop
/home/cs/nscscc2019/nscscc2019_release_v0.01/func_test_v0.01/soft/func/start.S:318
     3cc:	0c000858 	jal	2160 <n3_addiu_test>
/home/cs/nscscc2019/nscscc2019_release_v0.01/func_test_v0.01/soft/func/start.S:319
     3d0:	00000000 	nop
/home/cs/nscscc2019/nscscc2019_release_v0.01/func_test_v0.01/soft/func/start.S:320
     3d4:	0c000162 	jal	588 <wait_1s>
/home/cs/nscscc2019/nscscc2019_release_v0.01/func_test_v0.01/soft/func/start.S:321
     3d8:	00000000 	nop
/home/cs/nscscc2019/nscscc2019_release_v0.01/func_test_v0.01/soft/func/start.S:322
     3dc:	0c000894 	jal	2250 <n4_beq_test>
/home/cs/nscscc2019/nscscc2019_release_v0.01/func_test_v0.01/soft/func/start.S:323
     3e0:	00000000 	nop
/home/cs/nscscc2019/nscscc2019_reAlease_v0.01/func_test_v0.01/soft/func/start.S:324
     3e4:	0c000162 	jal	588 <wait_1s>
/home/cs/nscscc2019/nscscc2019_release_v0.01/func_test_v0.01/soft/func/start.S:325
     3e8:	00000000 	nop
/home/cs/nscscc2019/nscscc2019_release_v0.01/func_test_v0.01/soft/func/start.S:330
     3ec:	0c000944 	jal	2510 <n6_lw_test>
/home/cs/nscscc2019/nscscc2019_release_v0.01/func_test_v0.01/soft/func/start.S:331
     3f0:	00000000 	nop
/home/cs/nscscc2019/nscscc2019_release_v0.01/func_test_v0.01/soft/func/start.S:332
     3f4:	0c000162 	jal	588 <wait_1s>
/home/cs/nscscc2019/nscscc2019_release_v0.01/func_test_v0.01/soft/func/start.S:333
     3f8:	00000000 	nop
/home/cs/nscscc2019/nscscc2019_release_v0.01/func_test_v0.01/soft/func/start.S:334
     3fc:	0c0009b0 	jal	26c0 <n7_or_test>
/home/cs/nscscc2019/nscscc2019_release_v0.01/func_test_v0.01/soft/func/start.S:335
     400:	00000000 	nop
/home/cs/nscscc2019/nscscc2019_release_v0.01/func_test_v0.01/soft/func/start.S:336
     404:	0c000162 	jal	588 <wait_1s>
/home/cs/nscscc2019/nscscc2019_release_v0.01/func_test_v0.01/soft/func/start.S:337
     408:	00000000 	nop
/home/cs/nscscc2019/nscscc2019_release_v0.01/func_test_v0.01/soft/func/start.S:346
     40c:	0c00016c 	jal	5b0 <n10_sltiu_test>
/home/cs/nscscc2019/nscscc2019_release_v0.01/func_test_v0.01/soft/func/start.S:347
     410:	00000000 	nop
/home/cs/nscscc2019/nscscc2019_release_v0.01/func_test_v0.01/soft/func/start.S:348
     414:	0c000162 	jal	588 <wait_1s>
/home/cs/nscscc2019/nscscc2019_release_v0.01/func_test_v0.01/soft/func/start.S:349
     418:	00000000 	nop
/home/cs/nscscc2019/nscscc2019_release_v0.01/func_test_v0.01/soft/func/start.S:354
     41c:	0c0001a4 	jal	690 <n12_sw_test>
/home/cs/nscscc2019/nscscc2019_release_v0.01/func_test_v0.01/soft/func/start.S:355
     420:	00000000 	nop
/home/cs/nscscc2019/nscscc2019_release_v0.01/func_test_v0.01/soft/func/start.S:356
     424:	0c000162 	jal	588 <wait_1s>
/home/cs/nscscc2019/nscscc2019_release_v0.01/func_test_v0.01/soft/func/start.S:357
     428:	00000000 	nop
/home/cs/nscscc2019/nscscc2019_release_v0.01/func_test_v0.01/soft/func/start.S:358
     42c:	0c000220 	jal	880 <n13_j_test>
/home/cs/nscscc2019/nscscc2019_release_v0.01/func_test_v0.01/soft/func/start.S:359
     430:	00000000 	nop
/home/cs/nscscc2019/nscscc2019_release_v0.01/func_test_v0.01/soft/func/start.S:360
     434:	0c000162 	jal	588 <wait_1s>
/home/cs/nscscc2019/nscscc2019_release_v0.01/func_test_v0.01/soft/func/start.S:361
     438:	00000000 	nop
/home/cs/nscscc2019/nscscc2019_release_v0.01/func_test_v0.01/soft/func/start.S:362
     43c:	0c0002c4 	jal	b10 <n14_jal_test>
/home/cs/nscscc2019/nscscc2019_release_v0.01/func_test_v0.01/soft/func/start.S:363
     440:	00000000 	nop
/home/cs/nscscc2019/nscscc2019_release_v0.01/func_test_v0.01/soft/func/start.S:364
     444:	0c000162 	jal	588 <wait_1s>
/home/cs/nscscc2019/nscscc2019_release_v0.01/func_test_v0.01/soft/func/start.S:365
     448:	00000000 	nop
/home/cs/nscscc2019/nscscc2019_release_v0.01/func_test_v0.01/soft/func/start.S:366
     44c:	0c00039c 	jal	e70 <n15_jr_test>
/home/cs/nscscc2019/nscscc2019_release_v0.01/func_test_v0.01/soft/func/start.S:367
     450:	00000000 	nop
/home/cs/nscscc2019/nscscc2019_release_v0.01/func_test_v0.01/soft/func/start.S:368
     454:	0c000162 	jal	588 <wait_1s>
/home/cs/nscscc2019/nscscc2019_release_v0.01/func_test_v0.01/soft/func/start.S:369
     458:	00000000 	nop
/home/cs/nscscc2019/nscscc2019_release_v0.01/func_test_v0.01/soft/func/start.S:390
     45c:	0c0004e4 	jal	1390 <n21_add_test>
/home/cs/nscscc2019/nscscc2019_release_v0.01/func_test_v0.01/soft/func/start.S:391
     460:	00000000 	nop
/home/cs/nscscc2019/nscscc2019_release_v0.01/func_test_v0.01/soft/func/start.S:392
     464:	0c000162 	jal	588 <wait_1s>
/home/cs/nscscc2019/nscscc2019_release_v0.01/func_test_v0.01/soft/func/start.S:393
     468:	00000000 	nop
/home/cs/nscscc2019/nscscc2019_release_v0.01/func_test_v0.01/soft/func/start.S:394
     46c:	0c000528 	jal	14a0 <n22_addi_test>
/home/cs/nscscc2019/nscscc2019_release_v0.01/func_test_v0.01/soft/func/start.S:395
     470:	00000000 	nop
/home/cs/nscscc2019/nscscc2019_release_v0.01/func_test_v0.01/soft/func/start.S:396
     474:	0c000162 	jal	588 <wait_1s>
/home/cs/nscscc2019/nscscc2019_release_v0.01/func_test_v0.01/soft/func/start.S:397
     478:	00000000 	nop
/home/cs/nscscc2019/nscscc2019_release_v0.01/func_test_v0.01/soft/func/start.S:398
     47c:	0c000564 	jal	1590 <n23_sub_test>
/home/cs/nscscc2019/nscscc2019_release_v0.01/func_test_v0.01/soft/func/start.S:399
     480:	00000000 	nop
/home/cs/nscscc2019/nscscc2019_release_v0.01/func_test_v0.01/soft/func/start.S:400
     484:	0c000162 	jal	588 <wait_1s>
/home/cs/nscscc2019/nscscc2019_release_v0.01/func_test_v0.01/soft/func/start.S:401
     488:	00000000 	nop
/home/cs/nscscc2019/nscscc2019_release_v0.01/func_test_v0.01/soft/func/start.S:402
     48c:	0c0005a8 	jal	16a0 <n24_subu_test>
/home/cs/nscscc2019/nscscc2019_release_v0.01/func_test_v0.01/soft/func/start.S:403
     490:	00000000 	nop
/home/cs/nscscc2019/nscscc2019_release_v0.01/func_test_v0.01/soft/func/start.S:404
     494:	0c000162 	jal	588 <wait_1s>
/home/cs/nscscc2019/nscscc2019_release_v0.01/func_test_v0.01/soft/func/start.S:405
     498:	00000000 	nop
/home/cs/nscscc2019/nscscc2019_release_v0.01/func_test_v0.01/soft/func/start.S:410
     49c:	0c0005ec 	jal	17b0 <n26_and_test>
/home/cs/nscscc2019/nscscc2019_release_v0.01/func_test_v0.01/soft/func/start.S:411
     4a0:	00000000 	nop
/home/cs/nscscc2019/nscscc2019_release_v0.01/func_test_v0.01/soft/func/start.S:412
     4a4:	0c000162 	jal	588 <wait_1s>
/home/cs/nscscc2019/nscscc2019_release_v0.01/func_test_v0.01/soft/func/start.S:413
     4a8:	00000000 	nop
/home/cs/nscscc2019/nscscc2019_release_v0.01/func_test_v0.01/soft/func/start.S:414
     4ac:	0c000630 	jal	18c0 <n27_andi_test>
/home/cs/nscscc2019/nscscc2019_release_v0.01/func_test_v0.01/soft/func/start.S:415
     4b0:	00000000 	nop
/home/cs/nscscc2019/nscscc2019_release_v0.01/func_test_v0.01/soft/func/start.S:416
     4b4:	0c000162 	jal	588 <wait_1s>
/home/cs/nscscc2019/nscscc2019_release_v0.01/func_test_v0.01/soft/func/start.S:417
     4b8:	00000000 	nop
/home/cs/nscscc2019/nscscc2019_release_v0.01/func_test_v0.01/soft/func/start.S:418
     4bc:	0c000668 	jal	19a0 <n28_nor_test>
/home/cs/nscscc2019/nscscc2019_release_v0.01/func_test_v0.01/soft/func/start.S:419
     4c0:	00000000 	nop
/home/cs/nscscc2019/nscscc2019_release_v0.01/func_test_v0.01/soft/func/start.S:420
     4c4:	0c000162 	jal	588 <wait_1s>
/home/cs/nscscc2019/nscscc2019_release_v0.01/func_test_v0.01/soft/func/start.S:421
     4c8:	00000000 	nop
/home/cs/nscscc2019/nscscc2019_release_v0.01/func_test_v0.01/soft/func/start.S:422
     4cc:	0c0006ac 	jal	1ab0 <n29_ori_test>
/home/cs/nscscc2019/nscscc2019_release_v0.01/func_test_v0.01/soft/func/start.S:423
     4d0:	00000000 	nop
/home/cs/nscscc2019/nscscc2019_release_v0.01/func_test_v0.01/soft/func/start.S:424
     4d4:	0c000162 	jal	588 <wait_1s>
/home/cs/nscscc2019/nscscc2019_release_v0.01/func_test_v0.01/soft/func/start.S:425
     4d8:	00000000 	nop
/home/cs/nscscc2019/nscscc2019_release_v0.01/func_test_v0.01/soft/func/start.S:426
     4dc:	0c00072c 	jal	1cb0 <n30_xor_test>
/home/cs/nscscc2019/nscscc2019_release_v0.01/func_test_v0.01/soft/func/start.S:427
     4e0:	00000000 	nop
/home/cs/nscscc2019/nscscc2019_release_v0.01/func_test_v0.01/soft/func/start.S:428
     4e4:	0c000162 	jal	588 <wait_1s>
/home/cs/nscscc2019/nscscc2019_release_v0.01/func_test_v0.01/soft/func/start.S:429
     4e8:	00000000 	nop
/home/cs/nscscc2019/nscscc2019_release_v0.01/func_test_v0.01/soft/func/start.S:430
     4ec:	0c000770 	jal	1dc0 <n31_xori_test>
/home/cs/nscscc2019/nscscc2019_release_v0.01/func_test_v0.01/soft/func/start.S:431
     4f0:	00000000 	nop
/home/cs/nscscc2019/nscscc2019_release_v0.01/func_test_v0.01/soft/func/start.S:432
     4f4:	0c000162 	jal	588 <wait_1s>
/home/cs/nscscc2019/nscscc2019_release_v0.01/func_test_v0.01/soft/func/start.S:433
     4f8:	00000000 	nop
/home/cs/nscscc2019/nscscc2019_release_v0.01/func_test_v0.01/soft/func/start.S:434
     4fc:	0c0007a0 	jal	1e80 <n32_sllv_test>
/home/cs/nscscc2019/nscscc2019_release_v0.01/func_test_v0.01/soft/func/start.S:435
     500:	00000000 	nop
/home/cs/nscscc2019/nscscc2019_release_v0.01/func_test_v0.01/soft/func/start.S:436
     504:	0c000162 	jal	588 <wait_1s>
/home/cs/nscscc2019/nscscc2019_release_v0.01/func_test_v0.01/soft/func/start.S:437
     508:	00000000 	nop
/home/cs/nscscc2019/nscscc2019_release_v0.01/func_test_v0.01/soft/func/start.S:442
     50c:	0c0007dc 	jal	1f70 <n34_srav_test>
/home/cs/nscscc2019/nscscc2019_release_v0.01/func_test_v0.01/soft/func/start.S:443
     510:	00000000 	nop
/home/cs/nscscc2019/nscscc2019_release_v0.01/func_test_v0.01/soft/func/start.S:444
     514:	0c000162 	jal	588 <wait_1s>
/home/cs/nscscc2019/nscscc2019_release_v0.01/func_test_v0.01/soft/func/start.S:445
     518:	00000000 	nop
/home/cs/nscscc2019/nscscc2019_release_v0.01/func_test_v0.01/soft/func/start.S:450
     51c:	0c000818 	jal	2060 <n36_srlv_test>
/home/cs/nscscc2019/nscscc2019_release_v0.01/func_test_v0.01/soft/func/start.S:451
     520:	00000000 	nop
/home/cs/nscscc2019/nscscc2019_release_v0.01/func_test_v0.01/soft/func/start.S:452
     524:	0c000162 	jal	588 <wait_1s>
/home/cs/nscscc2019/nscscc2019_release_v0.01/func_test_v0.01/soft/func/start.S:453
     528:	00000000 	nop
/home/cs/nscscc2019/nscscc2019_release_v0.01/func_test_v0.01/soft/func/start.S:681
     52c:	0800014f 	j	53c <test_end>
/home/cs/nscscc2019/nscscc2019_release_v0.01/func_test_v0.01/soft/func/start.S:682
     530:	00000000 	nop

00000534 <io_err>:
/home/cs/nscscc2019/nscscc2019_release_v0.01/func_test_v0.01/soft/func/start.S:684
     534:	26100001 	addiu	s0,s0,1
/home/cs/nscscc2019/nscscc2019_release_v0.01/func_test_v0.01/soft/func/start.S:685
     538:	ae300000 	sw	s0,0(s1)

0000053c <test_end>:
/home/cs/nscscc2019/nscscc2019_release_v0.01/func_test_v0.01/soft/func/start.S:688
     53c:	24100018 	li	s0,24
/home/cs/nscscc2019/nscscc2019_release_v0.01/func_test_v0.01/soft/func/start.S:689
     540:	1213000a 	beq	s0,s3,56c <test_end+0x30>
/home/cs/nscscc2019/nscscc2019_release_v0.01/func_test_v0.01/soft/func/start.S:690
     544:	00000000 	nop
/home/cs/nscscc2019/nscscc2019_release_v0.01/func_test_v0.01/soft/func/start.S:692
     548:	2404fc60 	li	a0,-928
/home/cs/nscscc2019/nscscc2019_release_v0.01/func_test_v0.01/soft/func/start.S:693
     54c:	2405fc62 	li	a1,-926
/home/cs/nscscc2019/nscscc2019_release_v0.01/func_test_v0.01/soft/func/start.S:694
     550:	2406fc60 	li	a2,-928
/home/cs/nscscc2019/nscscc2019_release_v0.01/func_test_v0.01/soft/func/start.S:696
     554:	24090002 	li	t1,2
/home/cs/nscscc2019/nscscc2019_release_v0.01/func_test_v0.01/soft/func/start.S:698
     558:	ac800000 	sw	zero,0(a0)
/home/cs/nscscc2019/nscscc2019_release_v0.01/func_test_v0.01/soft/func/start.S:699
     55c:	aca90000 	sw	t1,0(a1)
/home/cs/nscscc2019/nscscc2019_release_v0.01/func_test_v0.01/soft/func/start.S:700
     560:	acc90000 	sw	t1,0(a2)
/home/cs/nscscc2019/nscscc2019_release_v0.01/func_test_v0.01/soft/func/start.S:701
     564:	08000160 	j	580 <test_end+0x44>
/home/cs/nscscc2019/nscscc2019_release_v0.01/func_test_v0.01/soft/func/start.S:702
     568:	00000000 	nop
/home/cs/nscscc2019/nscscc2019_release_v0.01/func_test_v0.01/soft/func/start.S:704
     56c:	24090001 	li	t1,1
/home/cs/nscscc2019/nscscc2019_release_v0.01/func_test_v0.01/soft/func/start.S:705
     570:	2404fc62 	li	a0,-926
/home/cs/nscscc2019/nscscc2019_release_v0.01/func_test_v0.01/soft/func/start.S:706
     574:	2405fc60 	li	a1,-928
/home/cs/nscscc2019/nscscc2019_release_v0.01/func_test_v0.01/soft/func/start.S:707
     578:	ac890000 	sw	t1,0(a0)
/home/cs/nscscc2019/nscscc2019_release_v0.01/func_test_v0.01/soft/func/start.S:708
     57c:	aca90000 	sw	t1,0(a1)
/home/cs/nscscc2019/nscscc2019_release_v0.01/func_test_v0.01/soft/func/start.S:711
     580:	0c000040 	jal	100 <test_finish>
/home/cs/nscscc2019/nscscc2019_release_v0.01/func_test_v0.01/soft/func/start.S:712
     584:	00000000 	nop

00000588 <wait_1s>:
/home/cs/nscscc2019/nscscc2019_release_v0.01/func_test_v0.01/soft/func/start.S:715
     588:	24080001 	li	t0,1
/home/cs/nscscc2019/nscscc2019_release_v0.01/func_test_v0.01/soft/func/start.S:717
     58c:	2508ffff 	addiu	t0,t0,-1
/home/cs/nscscc2019/nscscc2019_release_v0.01/func_test_v0.01/soft/func/start.S:719
     590:	01005026 	xor	t2,t0,zero
/home/cs/nscscc2019/nscscc2019_release_v0.01/func_test_v0.01/soft/func/start.S:720
     594:	34090001 	li	t1,0x1
/home/cs/nscscc2019/nscscc2019_release_v0.01/func_test_v0.01/soft/func/start.S:721
     598:	1149fffc 	beq	t2,t1,58c <wait_1s+0x4>
/home/cs/nscscc2019/nscscc2019_release_v0.01/func_test_v0.01/soft/func/start.S:722
     59c:	00000000 	nop
/home/cs/nscscc2019/nscscc2019_release_v0.01/func_test_v0.01/soft/func/start.S:723
     5a0:	03e00008 	jr	ra
/home/cs/nscscc2019/nscscc2019_release_v0.01/func_test_v0.01/soft/func/start.S:724
     5a4:	00000000 	nop
	...

000005b0 <n10_sltiu_test>:
/home/cs/nscscc2019/nscscc2019_release_v0.01/func_test_v0.01/soft/func/inst/n10_sltiu.S:7
     5b0:	26100001 	addiu	s0,s0,1
/home/cs/nscscc2019/nscscc2019_release_v0.01/func_test_v0.01/soft/func/inst/n10_sltiu.S:8
     5b4:	24120000 	li	s2,0
/home/cs/nscscc2019/nscscc2019_release_v0.01/func_test_v0.01/soft/func/inst/n10_sltiu.S:10
     5b8:	3c08c254 	lui	t0,0xc254
     5bc:	3508e3d8 	ori	t0,t0,0xe3d8
     5c0:	24030001 	li	v1,1
     5c4:	2d02f469 	sltiu	v0,t0,-2967
     5c8:	00435826 	xor	t3,v0,v1
     5cc:	340c0001 	li	t4,0x1
     5d0:	116c0026 	beq	t3,t4,66c <inst_error>
     5d4:	00000000 	nop
/home/cs/nscscc2019/nscscc2019_release_v0.01/func_test_v0.01/soft/func/inst/n10_sltiu.S:11
     5d8:	3c087a56 	lui	t0,0x7a56
     5dc:	3508334c 	ori	t0,t0,0x334c
     5e0:	24030000 	li	v1,0
     5e4:	2d0202f5 	sltiu	v0,t0,757
     5e8:	00435826 	xor	t3,v0,v1
     5ec:	340c0001 	li	t4,0x1
     5f0:	116c001e 	beq	t3,t4,66c <inst_error>
     5f4:	00000000 	nop
/home/cs/nscscc2019/nscscc2019_release_v0.01/func_test_v0.01/soft/func/inst/n10_sltiu.S:12
     5f8:	3c08abcd 	lui	t0,0xabcd
     5fc:	35082c00 	ori	t0,t0,0x2c00
     600:	24030001 	li	v1,1
     604:	2d02f7c7 	sltiu	v0,t0,-2105
     608:	00435826 	xor	t3,v0,v1
     60c:	340c0001 	li	t4,0x1
     610:	116c0016 	beq	t3,t4,66c <inst_error>
     614:	00000000 	nop
/home/cs/nscscc2019/nscscc2019_release_v0.01/func_test_v0.01/soft/func/inst/n10_sltiu.S:13
     618:	3c0825c8 	lui	t0,0x25c8
     61c:	350835b7 	ori	t0,t0,0x35b7
     620:	24030000 	li	v1,0
     624:	2d026dba 	sltiu	v0,t0,28090
     628:	00435826 	xor	t3,v0,v1
     62c:	340c0001 	li	t4,0x1
     630:	116c000e 	beq	t3,t4,66c <inst_error>
     634:	00000000 	nop
/home/cs/nscscc2019/nscscc2019_release_v0.01/func_test_v0.01/soft/func/inst/n10_sltiu.S:14
     638:	3c0810ea 	lui	t0,0x10ea
     63c:	35083bf2 	ori	t0,t0,0x3bf2
     640:	24030000 	li	v1,0
     644:	2d020ff4 	sltiu	v0,t0,4084
     648:	00435826 	xor	t3,v0,v1
     64c:	340c0001 	li	t4,0x1
     650:	116c0006 	beq	t3,t4,66c <inst_error>
     654:	00000000 	nop
/home/cs/nscscc2019/nscscc2019_release_v0.01/func_test_v0.01/soft/func/inst/n10_sltiu.S:313
     658:	02405026 	xor	t2,s2,zero
/home/cs/nscscc2019/nscscc2019_release_v0.01/func_test_v0.01/soft/func/inst/n10_sltiu.S:314
     65c:	34090001 	li	t1,0x1
/home/cs/nscscc2019/nscscc2019_release_v0.01/func_test_v0.01/soft/func/inst/n10_sltiu.S:315
     660:	11490002 	beq	t2,t1,66c <inst_error>
/home/cs/nscscc2019/nscscc2019_release_v0.01/func_test_v0.01/soft/func/inst/n10_sltiu.S:317
     664:	00000000 	nop
/home/cs/nscscc2019/nscscc2019_release_v0.01/func_test_v0.01/soft/func/inst/n10_sltiu.S:319
     668:	26730001 	addiu	s3,s3,1

0000066c <inst_error>:
/home/cs/nscscc2019/nscscc2019_release_v0.01/func_test_v0.01/soft/func/inst/n10_sltiu.S:323
     66c:	340a0018 	li	t2,0x18
/home/cs/nscscc2019/nscscc2019_release_v0.01/func_test_v0.01/soft/func/inst/n10_sltiu.S:324
     670:	01504804 	sllv	t1,s0,t2
/home/cs/nscscc2019/nscscc2019_release_v0.01/func_test_v0.01/soft/func/inst/n10_sltiu.S:326
     674:	01334025 	or	t0,t1,s3
/home/cs/nscscc2019/nscscc2019_release_v0.01/func_test_v0.01/soft/func/inst/n10_sltiu.S:327
     678:	ae280000 	sw	t0,0(s1)
/home/cs/nscscc2019/nscscc2019_release_v0.01/func_test_v0.01/soft/func/inst/n10_sltiu.S:328
     67c:	03e00008 	jr	ra
/home/cs/nscscc2019/nscscc2019_release_v0.01/func_test_v0.01/soft/func/inst/n10_sltiu.S:329
     680:	00000000 	nop
	...

00000690 <n12_sw_test>:
/home/cs/nscscc2019/nscscc2019_release_v0.01/func_test_v0.01/soft/func/inst/n12_sw.S:7
     690:	26100001 	addiu	s0,s0,1
/home/cs/nscscc2019/nscscc2019_release_v0.01/func_test_v0.01/soft/func/inst/n12_sw.S:8
     694:	24120000 	li	s2,0
/home/cs/nscscc2019/nscscc2019_release_v0.01/func_test_v0.01/soft/func/inst/n12_sw.S:10
     698:	3c096175 	lui	t1,0x6175
     69c:	35294443 	ori	t1,t1,0x4443
     6a0:	3c08800d 	lui	t0,0x800d
     6a4:	350877a0 	ori	t0,t0,0x77a0
     6a8:	3c036175 	lui	v1,0x6175
     6ac:	34634443 	ori	v1,v1,0x4443
     6b0:	ad097b14 	sw	t1,31508(t0)
     6b4:	25040004 	addiu	a0,t0,4
     6b8:	2505fffc 	addiu	a1,t0,-4
     6bc:	ac847b14 	sw	a0,31508(a0)
     6c0:	aca57b14 	sw	a1,31508(a1)
     6c4:	8d027b14 	lw	v0,31508(t0)
     6c8:	8c867b14 	lw	a2,31508(a0)
     6cc:	8ca47b14 	lw	a0,31508(a1)
     6d0:	8ca67b14 	lw	a2,31508(a1)
     6d4:	00435826 	xor	t3,v0,v1
     6d8:	340c0001 	li	t4,0x1
     6dc:	116c0060 	beq	t3,t4,860 <inst_error>
     6e0:	00000000 	nop
/home/cs/nscscc2019/nscscc2019_release_v0.01/func_test_v0.01/soft/func/inst/n12_sw.S:11
     6e4:	3c095c4f 	lui	t1,0x5c4f
     6e8:	3529b45a 	ori	t1,t1,0xb45a
     6ec:	3c08800d 	lui	t0,0x800d
     6f0:	35084aac 	ori	t0,t0,0x4aac
     6f4:	3c035c4f 	lui	v1,0x5c4f
     6f8:	3463b45a 	ori	v1,v1,0xb45a
     6fc:	ad09776c 	sw	t1,30572(t0)
     700:	25040004 	addiu	a0,t0,4
     704:	2505fffc 	addiu	a1,t0,-4
     708:	ac84776c 	sw	a0,30572(a0)
     70c:	aca5776c 	sw	a1,30572(a1)
     710:	8d02776c 	lw	v0,30572(t0)
     714:	8c86776c 	lw	a2,30572(a0)
     718:	8ca4776c 	lw	a0,30572(a1)
     71c:	8ca6776c 	lw	a2,30572(a1)
     720:	00435826 	xor	t3,v0,v1
     724:	340c0001 	li	t4,0x1
     728:	116c004d 	beq	t3,t4,860 <inst_error>
     72c:	00000000 	nop
/home/cs/nscscc2019/nscscc2019_release_v0.01/func_test_v0.01/soft/func/inst/n12_sw.S:12
     730:	3c091490 	lui	t1,0x1490
     734:	35298300 	ori	t1,t1,0x8300
     738:	3c08800d 	lui	t0,0x800d
     73c:	35084ae8 	ori	t0,t0,0x4ae8
     740:	3c031490 	lui	v1,0x1490
     744:	34638300 	ori	v1,v1,0x8300
     748:	ad095bd8 	sw	t1,23512(t0)
     74c:	25040004 	addiu	a0,t0,4
     750:	2505fffc 	addiu	a1,t0,-4
     754:	ac845bd8 	sw	a0,23512(a0)
     758:	aca55bd8 	sw	a1,23512(a1)
     75c:	8d025bd8 	lw	v0,23512(t0)
     760:	8c865bd8 	lw	a2,23512(a0)
     764:	8ca45bd8 	lw	a0,23512(a1)
     768:	8ca65bd8 	lw	a2,23512(a1)
     76c:	00435826 	xor	t3,v0,v1
     770:	340c0001 	li	t4,0x1
     774:	116c003a 	beq	t3,t4,860 <inst_error>
     778:	00000000 	nop
/home/cs/nscscc2019/nscscc2019_release_v0.01/func_test_v0.01/soft/func/inst/n12_sw.S:13
     77c:	3c09516d 	lui	t1,0x516d
     780:	3529a739 	ori	t1,t1,0xa739
     784:	3c08800d 	lui	t0,0x800d
     788:	350860cc 	ori	t0,t0,0x60cc
     78c:	3c03516d 	lui	v1,0x516d
     790:	3463a739 	ori	v1,v1,0xa739
     794:	3c010001 	lui	at,0x1
     798:	00280821 	addu	at,at,t0
     79c:	ac298950 	sw	t1,-30384(at)
     7a0:	25040004 	addiu	a0,t0,4
     7a4:	2505fffc 	addiu	a1,t0,-4
     7a8:	3c010001 	lui	at,0x1
     7ac:	00240821 	addu	at,at,a0
     7b0:	ac248950 	sw	a0,-30384(at)
     7b4:	3c010001 	lui	at,0x1
     7b8:	00250821 	addu	at,at,a1
     7bc:	ac258950 	sw	a1,-30384(at)
     7c0:	3c020001 	lui	v0,0x1
     7c4:	00481021 	addu	v0,v0,t0
     7c8:	8c428950 	lw	v0,-30384(v0)
     7cc:	3c060001 	lui	a2,0x1
     7d0:	00c43021 	addu	a2,a2,a0
     7d4:	8cc68950 	lw	a2,-30384(a2)
     7d8:	3c040001 	lui	a0,0x1
     7dc:	00852021 	addu	a0,a0,a1
     7e0:	8c848950 	lw	a0,-30384(a0)
     7e4:	3c060001 	lui	a2,0x1
     7e8:	00c53021 	addu	a2,a2,a1
     7ec:	8cc68950 	lw	a2,-30384(a2)
     7f0:	00435826 	xor	t3,v0,v1
     7f4:	340c0001 	li	t4,0x1
     7f8:	116c0019 	beq	t3,t4,860 <inst_error>
     7fc:	00000000 	nop
/home/cs/nscscc2019/nscscc2019_release_v0.01/func_test_v0.01/soft/func/inst/n12_sw.S:14
     800:	3c098567 	lui	t1,0x8567
     804:	35295a34 	ori	t1,t1,0x5a34
     808:	3c08800d 	lui	t0,0x800d
     80c:	35085510 	ori	t0,t0,0x5510
     810:	3c038567 	lui	v1,0x8567
     814:	34635a34 	ori	v1,v1,0x5a34
     818:	ad0930b0 	sw	t1,12464(t0)
     81c:	25040004 	addiu	a0,t0,4
     820:	2505fffc 	addiu	a1,t0,-4
     824:	ac8430b0 	sw	a0,12464(a0)
     828:	aca530b0 	sw	a1,12464(a1)
     82c:	8d0230b0 	lw	v0,12464(t0)
     830:	8c8630b0 	lw	a2,12464(a0)
     834:	8ca430b0 	lw	a0,12464(a1)
     838:	8ca630b0 	lw	a2,12464(a1)
     83c:	00435826 	xor	t3,v0,v1
     840:	340c0001 	li	t4,0x1
     844:	116c0006 	beq	t3,t4,860 <inst_error>
     848:	00000000 	nop
/home/cs/nscscc2019/nscscc2019_release_v0.01/func_test_v0.01/soft/func/inst/n12_sw.S:82
     84c:	02405026 	xor	t2,s2,zero
/home/cs/nscscc2019/nscscc2019_release_v0.01/func_test_v0.01/soft/func/inst/n12_sw.S:83
     850:	34090001 	li	t1,0x1
/home/cs/nscscc2019/nscscc2019_release_v0.01/func_test_v0.01/soft/func/inst/n12_sw.S:84
     854:	11490002 	beq	t2,t1,860 <inst_error>
/home/cs/nscscc2019/nscscc2019_release_v0.01/func_test_v0.01/soft/func/inst/n12_sw.S:86
     858:	00000000 	nop
/home/cs/nscscc2019/nscscc2019_release_v0.01/func_test_v0.01/soft/func/inst/n12_sw.S:88
     85c:	26730001 	addiu	s3,s3,1

00000860 <inst_error>:
/home/cs/nscscc2019/nscscc2019_release_v0.01/func_test_v0.01/soft/func/inst/n12_sw.S:92
     860:	340a0018 	li	t2,0x18
/home/cs/nscscc2019/nscscc2019_release_v0.01/func_test_v0.01/soft/func/inst/n12_sw.S:93
     864:	01504804 	sllv	t1,s0,t2
/home/cs/nscscc2019/nscscc2019_release_v0.01/func_test_v0.01/soft/func/inst/n12_sw.S:95
     868:	01334025 	or	t0,t1,s3
/home/cs/nscscc2019/nscscc2019_release_v0.01/func_test_v0.01/soft/func/inst/n12_sw.S:96
     86c:	ae280000 	sw	t0,0(s1)
/home/cs/nscscc2019/nscscc2019_release_v0.01/func_test_v0.01/soft/func/inst/n12_sw.S:97
     870:	03e00008 	jr	ra
/home/cs/nscscc2019/nscscc2019_release_v0.01/func_test_v0.01/soft/func/inst/n12_sw.S:98
     874:	00000000 	nop
	...

00000880 <n13_j_test>:
/home/cs/nscscc2019/nscscc2019_release_v0.01/func_test_v0.01/soft/func/inst/n13_j.S:7
     880:	26100001 	addiu	s0,s0,1
/home/cs/nscscc2019/nscscc2019_release_v0.01/func_test_v0.01/soft/func/inst/n13_j.S:8
     884:	24120000 	li	s2,0
/home/cs/nscscc2019/nscscc2019_release_v0.01/func_test_v0.01/soft/func/inst/n13_j.S:10
     888:	3c020000 	lui	v0,0x0
     88c:	3c030000 	lui	v1,0x0
     890:	10000008 	b	8b4 <n13_j_test+0x34>
     894:	00000000 	nop
     898:	3c0242ea 	lui	v0,0x42ea
     89c:	34426edf 	ori	v0,v0,0x6edf
     8a0:	08000232 	j	8c8 <n13_j_test+0x48>
     8a4:	00000000 	nop
     8a8:	10000009 	b	8d0 <n13_j_test+0x50>
     8ac:	00000000 	nop
     8b0:	00000000 	nop
     8b4:	08000226 	j	898 <n13_j_test+0x18>
     8b8:	00000000 	nop
     8bc:	10000004 	b	8d0 <n13_j_test+0x50>
     8c0:	00000000 	nop
     8c4:	00000000 	nop
     8c8:	3c032407 	lui	v1,0x2407
     8cc:	34631ba8 	ori	v1,v1,0x1ba8
     8d0:	3c1542ea 	lui	s5,0x42ea
     8d4:	36b56edf 	ori	s5,s5,0x6edf
     8d8:	3c162407 	lui	s6,0x2407
     8dc:	36d61ba8 	ori	s6,s6,0x1ba8
     8e0:	00555826 	xor	t3,v0,s5
     8e4:	340c0001 	li	t4,0x1
     8e8:	116c0082 	beq	t3,t4,af4 <inst_error>
     8ec:	00000000 	nop
     8f0:	00765826 	xor	t3,v1,s6
     8f4:	340c0001 	li	t4,0x1
     8f8:	116c007e 	beq	t3,t4,af4 <inst_error>
     8fc:	00000000 	nop
/home/cs/nscscc2019/nscscc2019_release_v0.01/func_test_v0.01/soft/func/inst/n13_j.S:11
     900:	3c020000 	lui	v0,0x0
     904:	3c030000 	lui	v1,0x0
     908:	10000008 	b	92c <n13_j_test+0xac>
     90c:	00000000 	nop
     910:	3c02ac27 	lui	v0,0xac27
     914:	34425df0 	ori	v0,v0,0x5df0
     918:	08000250 	j	940 <n13_j_test+0xc0>
     91c:	00000000 	nop
     920:	10000009 	b	948 <n13_j_test+0xc8>
     924:	00000000 	nop
     928:	00000000 	nop
     92c:	08000244 	j	910 <n13_j_test+0x90>
     930:	00000000 	nop
     934:	10000004 	b	948 <n13_j_test+0xc8>
     938:	00000000 	nop
     93c:	00000000 	nop
     940:	3c0383f0 	lui	v1,0x83f0
     944:	3463722c 	ori	v1,v1,0x722c
     948:	3c15ac27 	lui	s5,0xac27
     94c:	36b55df0 	ori	s5,s5,0x5df0
     950:	3c1683f0 	lui	s6,0x83f0
     954:	36d6722c 	ori	s6,s6,0x722c
     958:	00555826 	xor	t3,v0,s5
     95c:	340c0001 	li	t4,0x1
     960:	116c0064 	beq	t3,t4,af4 <inst_error>
     964:	00000000 	nop
     968:	00765826 	xor	t3,v1,s6
     96c:	340c0001 	li	t4,0x1
     970:	116c0060 	beq	t3,t4,af4 <inst_error>
     974:	00000000 	nop
/home/cs/nscscc2019/nscscc2019_release_v0.01/func_test_v0.01/soft/func/inst/n13_j.S:12
     978:	3c020000 	lui	v0,0x0
     97c:	3c030000 	lui	v1,0x0
     980:	10000008 	b	9a4 <n13_j_test+0x124>
     984:	00000000 	nop
     988:	3c0258b9 	lui	v0,0x58b9
     98c:	34421ef0 	ori	v0,v0,0x1ef0
     990:	0800026e 	j	9b8 <n13_j_test+0x138>
     994:	00000000 	nop
     998:	10000009 	b	9c0 <n13_j_test+0x140>
     99c:	00000000 	nop
     9a0:	00000000 	nop
     9a4:	08000262 	j	988 <n13_j_test+0x108>
     9a8:	00000000 	nop
     9ac:	10000004 	b	9c0 <n13_j_test+0x140>
     9b0:	00000000 	nop
     9b4:	00000000 	nop
     9b8:	3c032268 	lui	v1,0x2268
     9bc:	346361f5 	ori	v1,v1,0x61f5
     9c0:	3c1558b9 	lui	s5,0x58b9
     9c4:	36b51ef0 	ori	s5,s5,0x1ef0
     9c8:	3c162268 	lui	s6,0x2268
     9cc:	36d661f5 	ori	s6,s6,0x61f5
     9d0:	00555826 	xor	t3,v0,s5
     9d4:	340c0001 	li	t4,0x1
     9d8:	116c0046 	beq	t3,t4,af4 <inst_error>
     9dc:	00000000 	nop
     9e0:	00765826 	xor	t3,v1,s6
     9e4:	340c0001 	li	t4,0x1
     9e8:	116c0042 	beq	t3,t4,af4 <inst_error>
     9ec:	00000000 	nop
/home/cs/nscscc2019/nscscc2019_release_v0.01/func_test_v0.01/soft/func/inst/n13_j.S:13
     9f0:	3c020000 	lui	v0,0x0
     9f4:	3c030000 	lui	v1,0x0
     9f8:	10000008 	b	a1c <n13_j_test+0x19c>
     9fc:	00000000 	nop
     a00:	3c02fc34 	lui	v0,0xfc34
     a04:	3442d5d0 	ori	v0,v0,0xd5d0
     a08:	0800028c 	j	a30 <n13_j_test+0x1b0>
     a0c:	00000000 	nop
     a10:	10000009 	b	a38 <n13_j_test+0x1b8>
     a14:	00000000 	nop
     a18:	00000000 	nop
     a1c:	08000280 	j	a00 <n13_j_test+0x180>
     a20:	00000000 	nop
     a24:	10000004 	b	a38 <n13_j_test+0x1b8>
     a28:	00000000 	nop
     a2c:	00000000 	nop
     a30:	3c034710 	lui	v1,0x4710
     a34:	34637652 	ori	v1,v1,0x7652
     a38:	3c15fc34 	lui	s5,0xfc34
     a3c:	36b5d5d0 	ori	s5,s5,0xd5d0
     a40:	3c164710 	lui	s6,0x4710
     a44:	36d67652 	ori	s6,s6,0x7652
     a48:	00555826 	xor	t3,v0,s5
     a4c:	340c0001 	li	t4,0x1
     a50:	116c0028 	beq	t3,t4,af4 <inst_error>
     a54:	00000000 	nop
     a58:	00765826 	xor	t3,v1,s6
     a5c:	340c0001 	li	t4,0x1
     a60:	116c0024 	beq	t3,t4,af4 <inst_error>
     a64:	00000000 	nop
/home/cs/nscscc2019/nscscc2019_release_v0.01/func_test_v0.01/soft/func/inst/n13_j.S:14
     a68:	3c020000 	lui	v0,0x0
     a6c:	3c030000 	lui	v1,0x0
     a70:	10000008 	b	a94 <n13_j_test+0x214>
     a74:	00000000 	nop
     a78:	3c029978 	lui	v0,0x9978
     a7c:	344288c0 	ori	v0,v0,0x88c0
     a80:	080002aa 	j	aa8 <n13_j_test+0x228>
     a84:	00000000 	nop
     a88:	10000009 	b	ab0 <n13_j_test+0x230>
     a8c:	00000000 	nop
     a90:	00000000 	nop
     a94:	0800029e 	j	a78 <n13_j_test+0x1f8>
     a98:	00000000 	nop
     a9c:	10000004 	b	ab0 <n13_j_test+0x230>
     aa0:	00000000 	nop
     aa4:	00000000 	nop
     aa8:	3c034980 	lui	v1,0x4980
     aac:	3463d790 	ori	v1,v1,0xd790
     ab0:	3c159978 	lui	s5,0x9978
     ab4:	36b588c0 	ori	s5,s5,0x88c0
     ab8:	3c164980 	lui	s6,0x4980
     abc:	36d6d790 	ori	s6,s6,0xd790
     ac0:	00555826 	xor	t3,v0,s5
     ac4:	340c0001 	li	t4,0x1
     ac8:	116c000a 	beq	t3,t4,af4 <inst_error>
     acc:	00000000 	nop
     ad0:	00765826 	xor	t3,v1,s6
     ad4:	340c0001 	li	t4,0x1
     ad8:	116c0006 	beq	t3,t4,af4 <inst_error>
     adc:	00000000 	nop
/home/cs/nscscc2019/nscscc2019_release_v0.01/func_test_v0.01/soft/func/inst/n13_j.S:133
     ae0:	02405026 	xor	t2,s2,zero
/home/cs/nscscc2019/nscscc2019_release_v0.01/func_test_v0.01/soft/func/inst/n13_j.S:134
     ae4:	34090001 	li	t1,0x1
/home/cs/nscscc2019/nscscc2019_release_v0.01/func_test_v0.01/soft/func/inst/n13_j.S:135
     ae8:	11490002 	beq	t2,t1,af4 <inst_error>
/home/cs/nscscc2019/nscscc2019_release_v0.01/func_test_v0.01/soft/func/inst/n13_j.S:137
     aec:	00000000 	nop
/home/cs/nscscc2019/nscscc2019_release_v0.01/func_test_v0.01/soft/func/inst/n13_j.S:139
     af0:	26730001 	addiu	s3,s3,1

00000af4 <inst_error>:
/home/cs/nscscc2019/nscscc2019_release_v0.01/func_test_v0.01/soft/func/inst/n13_j.S:143
     af4:	340a0018 	li	t2,0x18
/home/cs/nscscc2019/nscscc2019_release_v0.01/func_test_v0.01/soft/func/inst/n13_j.S:144
     af8:	01504804 	sllv	t1,s0,t2
/home/cs/nscscc2019/nscscc2019_release_v0.01/func_test_v0.01/soft/func/inst/n13_j.S:146
     afc:	01334025 	or	t0,t1,s3
/home/cs/nscscc2019/nscscc2019_release_v0.01/func_test_v0.01/soft/func/inst/n13_j.S:147
     b00:	ae280000 	sw	t0,0(s1)
/home/cs/nscscc2019/nscscc2019_release_v0.01/func_test_v0.01/soft/func/inst/n13_j.S:148
     b04:	03e00008 	jr	ra
/home/cs/nscscc2019/nscscc2019_release_v0.01/func_test_v0.01/soft/func/inst/n13_j.S:149
     b08:	00000000 	nop
inst_error():
     b0c:	00000000 	nop

00000b10 <n14_jal_test>:
/home/cs/nscscc2019/nscscc2019_release_v0.01/func_test_v0.01/soft/func/inst/n14_jal.S:7
     b10:	26100001 	addiu	s0,s0,1
/home/cs/nscscc2019/nscscc2019_release_v0.01/func_test_v0.01/soft/func/inst/n14_jal.S:8
     b14:	24120000 	li	s2,0
/home/cs/nscscc2019/nscscc2019_release_v0.01/func_test_v0.01/soft/func/inst/n14_jal.S:10
     b18:	001fb821 	addu	s7,zero,ra
     b1c:	3c020000 	lui	v0,0x0
     b20:	3c030000 	lui	v1,0x0
     b24:	0c0002d3 	jal	b4c <n14_jal_test+0x3c>
     b28:	00000000 	nop
     b2c:	03e02821 	move	a1,ra
     b30:	3c028c3e 	lui	v0,0x8c3e
     b34:	34421efa 	ori	v0,v0,0x1efa
     b38:	0c0002d9 	jal	b64 <n14_jal_test+0x54>
     b3c:	00000000 	nop
     b40:	1000000b 	b	b70 <n14_jal_test+0x60>
     b44:	00000000 	nop
     b48:	00000000 	nop
     b4c:	03e02021 	move	a0,ra
     b50:	0c0002cb 	jal	b2c <n14_jal_test+0x1c>
     b54:	00000000 	nop
     b58:	10000005 	b	b70 <n14_jal_test+0x60>
     b5c:	00000000 	nop
     b60:	00000000 	nop
     b64:	03e03021 	move	a2,ra
     b68:	3c03eb2b 	lui	v1,0xeb2b
     b6c:	3463d57c 	ori	v1,v1,0xd57c
     b70:	0017f821 	addu	ra,zero,s7
     b74:	3c158c3e 	lui	s5,0x8c3e
     b78:	36b51efa 	ori	s5,s5,0x1efa
     b7c:	3c16eb2b 	lui	s6,0xeb2b
     b80:	36d6d57c 	ori	s6,s6,0xd57c
     b84:	00555826 	xor	t3,v0,s5
     b88:	340c0001 	li	t4,0x1
     b8c:	116c00af 	beq	t3,t4,e4c <inst_error>
     b90:	00000000 	nop
     b94:	24c60018 	addiu	a2,a2,24
     b98:	00765826 	xor	t3,v1,s6
     b9c:	340c0001 	li	t4,0x1
     ba0:	116c00aa 	beq	t3,t4,e4c <inst_error>
     ba4:	00000000 	nop
     ba8:	00c55826 	xor	t3,a2,a1
     bac:	340c0001 	li	t4,0x1
     bb0:	116c00a6 	beq	t3,t4,e4c <inst_error>
     bb4:	00000000 	nop
/home/cs/nscscc2019/nscscc2019_release_v0.01/func_test_v0.01/soft/func/inst/n14_jal.S:11
     bb8:	001fb821 	addu	s7,zero,ra
     bbc:	3c020000 	lui	v0,0x0
     bc0:	3c030000 	lui	v1,0x0
     bc4:	0c0002fb 	jal	bec <n14_jal_test+0xdc>
     bc8:	00000000 	nop
     bcc:	03e02821 	move	a1,ra
     bd0:	3c02fbc1 	lui	v0,0xfbc1
     bd4:	3442f5d0 	ori	v0,v0,0xf5d0
     bd8:	0c000301 	jal	c04 <n14_jal_test+0xf4>
     bdc:	00000000 	nop
     be0:	1000000b 	b	c10 <n14_jal_test+0x100>
     be4:	00000000 	nop
     be8:	00000000 	nop
     bec:	03e02021 	move	a0,ra
     bf0:	0c0002f3 	jal	bcc <n14_jal_test+0xbc>
     bf4:	00000000 	nop
     bf8:	10000005 	b	c10 <n14_jal_test+0x100>
     bfc:	00000000 	nop
     c00:	00000000 	nop
     c04:	03e03021 	move	a2,ra
     c08:	3c03b91b 	lui	v1,0xb91b
     c0c:	3463c0b0 	ori	v1,v1,0xc0b0
     c10:	0017f821 	addu	ra,zero,s7
     c14:	3c15fbc1 	lui	s5,0xfbc1
     c18:	36b5f5d0 	ori	s5,s5,0xf5d0
     c1c:	3c16b91b 	lui	s6,0xb91b
     c20:	36d6c0b0 	ori	s6,s6,0xc0b0
     c24:	00555826 	xor	t3,v0,s5
     c28:	340c0001 	li	t4,0x1
     c2c:	116c0087 	beq	t3,t4,e4c <inst_error>
     c30:	00000000 	nop
     c34:	24c60018 	addiu	a2,a2,24
     c38:	00765826 	xor	t3,v1,s6
     c3c:	340c0001 	li	t4,0x1
     c40:	116c0082 	beq	t3,t4,e4c <inst_error>
     c44:	00000000 	nop
     c48:	00c55826 	xor	t3,a2,a1
     c4c:	340c0001 	li	t4,0x1
     c50:	116c007e 	beq	t3,t4,e4c <inst_error>
     c54:	00000000 	nop
/home/cs/nscscc2019/nscscc2019_release_v0.01/func_test_v0.01/soft/func/inst/n14_jal.S:12
     c58:	001fb821 	addu	s7,zero,ra
     c5c:	3c020000 	lui	v0,0x0
     c60:	3c030000 	lui	v1,0x0
     c64:	0c000323 	jal	c8c <n14_jal_test+0x17c>
     c68:	00000000 	nop
     c6c:	03e02821 	move	a1,ra
     c70:	3c02c106 	lui	v0,0xc106
     c74:	34422356 	ori	v0,v0,0x2356
     c78:	0c000329 	jal	ca4 <n14_jal_test+0x194>
     c7c:	00000000 	nop
     c80:	1000000b 	b	cb0 <n14_jal_test+0x1a0>
     c84:	00000000 	nop
     c88:	00000000 	nop
     c8c:	03e02021 	move	a0,ra
     c90:	0c00031b 	jal	c6c <n14_jal_test+0x15c>
     c94:	00000000 	nop
     c98:	10000005 	b	cb0 <n14_jal_test+0x1a0>
     c9c:	00000000 	nop
     ca0:	00000000 	nop
     ca4:	03e03021 	move	a2,ra
     ca8:	3c03f8d6 	lui	v1,0xf8d6
     cac:	34630c60 	ori	v1,v1,0xc60
     cb0:	0017f821 	addu	ra,zero,s7
     cb4:	3c15c106 	lui	s5,0xc106
     cb8:	36b52356 	ori	s5,s5,0x2356
     cbc:	3c16f8d6 	lui	s6,0xf8d6
     cc0:	36d60c60 	ori	s6,s6,0xc60
     cc4:	00555826 	xor	t3,v0,s5
     cc8:	340c0001 	li	t4,0x1
     ccc:	116c005f 	beq	t3,t4,e4c <inst_error>
     cd0:	00000000 	nop
     cd4:	24c60018 	addiu	a2,a2,24
     cd8:	00765826 	xor	t3,v1,s6
     cdc:	340c0001 	li	t4,0x1
     ce0:	116c005a 	beq	t3,t4,e4c <inst_error>
     ce4:	00000000 	nop
     ce8:	00c55826 	xor	t3,a2,a1
     cec:	340c0001 	li	t4,0x1
     cf0:	116c0056 	beq	t3,t4,e4c <inst_error>
     cf4:	00000000 	nop
/home/cs/nscscc2019/nscscc2019_release_v0.01/func_test_v0.01/soft/func/inst/n14_jal.S:13
     cf8:	001fb821 	addu	s7,zero,ra
     cfc:	3c020000 	lui	v0,0x0
     d00:	3c030000 	lui	v1,0x0
     d04:	0c00034b 	jal	d2c <n14_jal_test+0x21c>
     d08:	00000000 	nop
     d0c:	03e02821 	move	a1,ra
     d10:	3c020b2d 	lui	v0,0xb2d
     d14:	3442c8e4 	ori	v0,v0,0xc8e4
     d18:	0c000351 	jal	d44 <n14_jal_test+0x234>
     d1c:	00000000 	nop
     d20:	1000000b 	b	d50 <n14_jal_test+0x240>
     d24:	00000000 	nop
     d28:	00000000 	nop
     d2c:	03e02021 	move	a0,ra
     d30:	0c000343 	jal	d0c <n14_jal_test+0x1fc>
     d34:	00000000 	nop
     d38:	10000005 	b	d50 <n14_jal_test+0x240>
     d3c:	00000000 	nop
     d40:	00000000 	nop
     d44:	03e03021 	move	a2,ra
     d48:	3c03ff27 	lui	v1,0xff27
     d4c:	34636d2f 	ori	v1,v1,0x6d2f
     d50:	0017f821 	addu	ra,zero,s7
     d54:	3c150b2d 	lui	s5,0xb2d
     d58:	36b5c8e4 	ori	s5,s5,0xc8e4
     d5c:	3c16ff27 	lui	s6,0xff27
     d60:	36d66d2f 	ori	s6,s6,0x6d2f
     d64:	00555826 	xor	t3,v0,s5
     d68:	340c0001 	li	t4,0x1
     d6c:	116c0037 	beq	t3,t4,e4c <inst_error>
     d70:	00000000 	nop
     d74:	24c60018 	addiu	a2,a2,24
     d78:	00765826 	xor	t3,v1,s6
     d7c:	340c0001 	li	t4,0x1
     d80:	116c0032 	beq	t3,t4,e4c <inst_error>
     d84:	00000000 	nop
     d88:	00c55826 	xor	t3,a2,a1
     d8c:	340c0001 	li	t4,0x1
     d90:	116c002e 	beq	t3,t4,e4c <inst_error>
     d94:	00000000 	nop
/home/cs/nscscc2019/nscscc2019_release_v0.01/func_test_v0.01/soft/func/inst/n14_jal.S:14
     d98:	001fb821 	addu	s7,zero,ra
     d9c:	3c020000 	lui	v0,0x0
     da0:	3c030000 	lui	v1,0x0
     da4:	0c000373 	jal	dcc <n14_jal_test+0x2bc>
     da8:	00000000 	nop
     dac:	03e02821 	move	a1,ra
     db0:	3c02312f 	lui	v0,0x312f
     db4:	3442abd9 	ori	v0,v0,0xabd9
     db8:	0c000379 	jal	de4 <n14_jal_test+0x2d4>
     dbc:	00000000 	nop
     dc0:	1000000b 	b	df0 <n14_jal_test+0x2e0>
     dc4:	00000000 	nop
     dc8:	00000000 	nop
     dcc:	03e02021 	move	a0,ra
     dd0:	0c00036b 	jal	dac <n14_jal_test+0x29c>
     dd4:	00000000 	nop
     dd8:	10000005 	b	df0 <n14_jal_test+0x2e0>
     ddc:	00000000 	nop
     de0:	00000000 	nop
     de4:	03e03021 	move	a2,ra
     de8:	3c039703 	lui	v1,0x9703
     dec:	346387ac 	ori	v1,v1,0x87ac
     df0:	0017f821 	addu	ra,zero,s7
     df4:	3c15312f 	lui	s5,0x312f
     df8:	36b5abd9 	ori	s5,s5,0xabd9
     dfc:	3c169703 	lui	s6,0x9703
     e00:	36d687ac 	ori	s6,s6,0x87ac
     e04:	00555826 	xor	t3,v0,s5
     e08:	340c0001 	li	t4,0x1
     e0c:	116c000f 	beq	t3,t4,e4c <inst_error>
     e10:	00000000 	nop
     e14:	24c60018 	addiu	a2,a2,24
     e18:	00765826 	xor	t3,v1,s6
     e1c:	340c0001 	li	t4,0x1
     e20:	116c000a 	beq	t3,t4,e4c <inst_error>
     e24:	00000000 	nop
     e28:	00c55826 	xor	t3,a2,a1
     e2c:	340c0001 	li	t4,0x1
     e30:	116c0006 	beq	t3,t4,e4c <inst_error>
     e34:	00000000 	nop
/home/cs/nscscc2019/nscscc2019_release_v0.01/func_test_v0.01/soft/func/inst/n14_jal.S:134
     e38:	02405026 	xor	t2,s2,zero
/home/cs/nscscc2019/nscscc2019_release_v0.01/func_test_v0.01/soft/func/inst/n14_jal.S:135
     e3c:	34090001 	li	t1,0x1
/home/cs/nscscc2019/nscscc2019_release_v0.01/func_test_v0.01/soft/func/inst/n14_jal.S:136
     e40:	11490002 	beq	t2,t1,e4c <inst_error>
/home/cs/nscscc2019/nscscc2019_release_v0.01/func_test_v0.01/soft/func/inst/n14_jal.S:138
     e44:	00000000 	nop
/home/cs/nscscc2019/nscscc2019_release_v0.01/func_test_v0.01/soft/func/inst/n14_jal.S:140
     e48:	26730001 	addiu	s3,s3,1

00000e4c <inst_error>:
/home/cs/nscscc2019/nscscc2019_release_v0.01/func_test_v0.01/soft/func/inst/n14_jal.S:144
     e4c:	340a0018 	li	t2,0x18
/home/cs/nscscc2019/nscscc2019_release_v0.01/func_test_v0.01/soft/func/inst/n14_jal.S:145
     e50:	01504804 	sllv	t1,s0,t2
/home/cs/nscscc2019/nscscc2019_release_v0.01/func_test_v0.01/soft/func/inst/n14_jal.S:147
     e54:	01334025 	or	t0,t1,s3
/home/cs/nscscc2019/nscscc2019_release_v0.01/func_test_v0.01/soft/func/inst/n14_jal.S:148
     e58:	ae280000 	sw	t0,0(s1)
/home/cs/nscscc2019/nscscc2019_release_v0.01/func_test_v0.01/soft/func/inst/n14_jal.S:149
     e5c:	03e00008 	jr	ra
/home/cs/nscscc2019/nscscc2019_release_v0.01/func_test_v0.01/soft/func/inst/n14_jal.S:150
     e60:	00000000 	nop
	...

00000e70 <n15_jr_test>:
/home/cs/nscscc2019/nscscc2019_release_v0.01/func_test_v0.01/soft/func/inst/n15_jr.S:7
     e70:	26100001 	addiu	s0,s0,1
/home/cs/nscscc2019/nscscc2019_release_v0.01/func_test_v0.01/soft/func/inst/n15_jr.S:8
     e74:	24120000 	li	s2,0
/home/cs/nscscc2019/nscscc2019_release_v0.01/func_test_v0.01/soft/func/inst/n15_jr.S:10
     e78:	3c020000 	lui	v0,0x0
     e7c:	3c030000 	lui	v1,0x0
     e80:	3c080000 	lui	t0,0x0
     e84:	25080e98 	addiu	t0,t0,3736
     e88:	3c090000 	lui	t1,0x0
     e8c:	25290ec8 	addiu	t1,t1,3784
     e90:	10000008 	b	eb4 <n15_jr_test+0x44>
     e94:	00000000 	nop
     e98:	3c02c21e 	lui	v0,0xc21e
     e9c:	34426e78 	ori	v0,v0,0x6e78
     ea0:	01200008 	jr	t1
     ea4:	00000000 	nop
     ea8:	10000009 	b	ed0 <n15_jr_test+0x60>
     eac:	00000000 	nop
     eb0:	00000000 	nop
     eb4:	01000008 	jr	t0
     eb8:	00000000 	nop
     ebc:	10000004 	b	ed0 <n15_jr_test+0x60>
     ec0:	00000000 	nop
     ec4:	00000000 	nop
     ec8:	3c030e2e 	lui	v1,0xe2e
     ecc:	3463a248 	ori	v1,v1,0xa248
     ed0:	3c15c21e 	lui	s5,0xc21e
     ed4:	36b56e78 	ori	s5,s5,0x6e78
     ed8:	3c160e2e 	lui	s6,0xe2e
     edc:	36d6a248 	ori	s6,s6,0xa248
     ee0:	00555826 	xor	t3,v0,s5
     ee4:	340c0001 	li	t4,0x1
     ee8:	116c0092 	beq	t3,t4,1134 <inst_error>
     eec:	00000000 	nop
     ef0:	00765826 	xor	t3,v1,s6
     ef4:	340c0001 	li	t4,0x1
     ef8:	116c008e 	beq	t3,t4,1134 <inst_error>
     efc:	00000000 	nop
/home/cs/nscscc2019/nscscc2019_release_v0.01/func_test_v0.01/soft/func/inst/n15_jr.S:11
     f00:	3c020000 	lui	v0,0x0
     f04:	3c030000 	lui	v1,0x0
     f08:	3c080000 	lui	t0,0x0
     f0c:	25080f20 	addiu	t0,t0,3872
     f10:	3c090000 	lui	t1,0x0
     f14:	25290f50 	addiu	t1,t1,3920
     f18:	10000008 	b	f3c <n15_jr_test+0xcc>
     f1c:	00000000 	nop
     f20:	3c026793 	lui	v0,0x6793
     f24:	3442c49c 	ori	v0,v0,0xc49c
     f28:	01200008 	jr	t1
     f2c:	00000000 	nop
     f30:	10000009 	b	f58 <n15_jr_test+0xe8>
     f34:	00000000 	nop
     f38:	00000000 	nop
     f3c:	01000008 	jr	t0
     f40:	00000000 	nop
     f44:	10000004 	b	f58 <n15_jr_test+0xe8>
     f48:	00000000 	nop
     f4c:	00000000 	nop
     f50:	3c03654b 	lui	v1,0x654b
     f54:	34632d70 	ori	v1,v1,0x2d70
     f58:	3c156793 	lui	s5,0x6793
     f5c:	36b5c49c 	ori	s5,s5,0xc49c
     f60:	3c16654b 	lui	s6,0x654b
     f64:	36d62d70 	ori	s6,s6,0x2d70
     f68:	00555826 	xor	t3,v0,s5
     f6c:	340c0001 	li	t4,0x1
     f70:	116c0070 	beq	t3,t4,1134 <inst_error>
     f74:	00000000 	nop
     f78:	00765826 	xor	t3,v1,s6
     f7c:	340c0001 	li	t4,0x1
     f80:	116c006c 	beq	t3,t4,1134 <inst_error>
     f84:	00000000 	nop
/home/cs/nscscc2019/nscscc2019_release_v0.01/func_test_v0.01/soft/func/inst/n15_jr.S:12
     f88:	3c020000 	lui	v0,0x0
     f8c:	3c030000 	lui	v1,0x0
     f90:	3c080000 	lui	t0,0x0
     f94:	25080fa8 	addiu	t0,t0,4008
     f98:	3c090000 	lui	t1,0x0
     f9c:	25290fd8 	addiu	t1,t1,4056
     fa0:	10000008 	b	fc4 <n15_jr_test+0x154>
     fa4:	00000000 	nop
     fa8:	3c02ff0a 	lui	v0,0xff0a
     fac:	344208b0 	ori	v0,v0,0x8b0
     fb0:	01200008 	jr	t1
     fb4:	00000000 	nop
     fb8:	10000009 	b	fe0 <n15_jr_test+0x170>
     fbc:	00000000 	nop
     fc0:	00000000 	nop
     fc4:	01000008 	jr	t0
     fc8:	00000000 	nop
     fcc:	10000004 	b	fe0 <n15_jr_test+0x170>
     fd0:	00000000 	nop
     fd4:	00000000 	nop
     fd8:	3c0350d2 	lui	v1,0x50d2
     fdc:	3463bb38 	ori	v1,v1,0xbb38
     fe0:	3c15ff0a 	lui	s5,0xff0a
     fe4:	36b508b0 	ori	s5,s5,0x8b0
     fe8:	3c1650d2 	lui	s6,0x50d2
     fec:	36d6bb38 	ori	s6,s6,0xbb38
     ff0:	00555826 	xor	t3,v0,s5
     ff4:	340c0001 	li	t4,0x1
     ff8:	116c004e 	beq	t3,t4,1134 <inst_error>
     ffc:	00000000 	nop
    1000:	00765826 	xor	t3,v1,s6
    1004:	340c0001 	li	t4,0x1
    1008:	116c004a 	beq	t3,t4,1134 <inst_error>
    100c:	00000000 	nop
/home/cs/nscscc2019/nscscc2019_release_v0.01/func_test_v0.01/soft/func/inst/n15_jr.S:13
    1010:	3c020000 	lui	v0,0x0
    1014:	3c030000 	lui	v1,0x0
    1018:	3c080000 	lui	t0,0x0
    101c:	25081030 	addiu	t0,t0,4144
    1020:	3c090000 	lui	t1,0x0
    1024:	25291060 	addiu	t1,t1,4192
    1028:	10000008 	b	104c <n15_jr_test+0x1dc>
    102c:	00000000 	nop
    1030:	3c027064 	lui	v0,0x7064
    1034:	34420e44 	ori	v0,v0,0xe44
    1038:	01200008 	jr	t1
    103c:	00000000 	nop
    1040:	10000009 	b	1068 <n15_jr_test+0x1f8>
    1044:	00000000 	nop
    1048:	00000000 	nop
    104c:	01000008 	jr	t0
    1050:	00000000 	nop
    1054:	10000004 	b	1068 <n15_jr_test+0x1f8>
    1058:	00000000 	nop
    105c:	00000000 	nop
    1060:	3c03391a 	lui	v1,0x391a
    1064:	3463fbca 	ori	v1,v1,0xfbca
    1068:	3c157064 	lui	s5,0x7064
    106c:	36b50e44 	ori	s5,s5,0xe44
    1070:	3c16391a 	lui	s6,0x391a
    1074:	36d6fbca 	ori	s6,s6,0xfbca
    1078:	00555826 	xor	t3,v0,s5
    107c:	340c0001 	li	t4,0x1
    1080:	116c002c 	beq	t3,t4,1134 <inst_error>
    1084:	00000000 	nop
    1088:	00765826 	xor	t3,v1,s6
    108c:	340c0001 	li	t4,0x1
    1090:	116c0028 	beq	t3,t4,1134 <inst_error>
    1094:	00000000 	nop
/home/cs/nscscc2019/nscscc2019_release_v0.01/func_test_v0.01/soft/func/inst/n15_jr.S:14
    1098:	3c020000 	lui	v0,0x0
    109c:	3c030000 	lui	v1,0x0
    10a0:	3c080000 	lui	t0,0x0
    10a4:	250810b8 	addiu	t0,t0,4280
    10a8:	3c090000 	lui	t1,0x0
    10ac:	252910e8 	addiu	t1,t1,4328
    10b0:	10000008 	b	10d4 <n15_jr_test+0x264>
    10b4:	00000000 	nop
    10b8:	3c020506 	lui	v0,0x506
    10bc:	3442233b 	ori	v0,v0,0x233b
    10c0:	01200008 	jr	t1
    10c4:	00000000 	nop
    10c8:	10000009 	b	10f0 <n15_jr_test+0x280>
    10cc:	00000000 	nop
    10d0:	00000000 	nop
    10d4:	01000008 	jr	t0
    10d8:	00000000 	nop
    10dc:	10000004 	b	10f0 <n15_jr_test+0x280>
    10e0:	00000000 	nop
    10e4:	00000000 	nop
    10e8:	3c03b141 	lui	v1,0xb141
    10ec:	346315a8 	ori	v1,v1,0x15a8
    10f0:	3c150506 	lui	s5,0x506
    10f4:	36b5233b 	ori	s5,s5,0x233b
    10f8:	3c16b141 	lui	s6,0xb141
    10fc:	36d615a8 	ori	s6,s6,0x15a8
    1100:	00555826 	xor	t3,v0,s5
    1104:	340c0001 	li	t4,0x1
    1108:	116c000a 	beq	t3,t4,1134 <inst_error>
    110c:	00000000 	nop
    1110:	00765826 	xor	t3,v1,s6
    1114:	340c0001 	li	t4,0x1
    1118:	116c0006 	beq	t3,t4,1134 <inst_error>
    111c:	00000000 	nop
/home/cs/nscscc2019/nscscc2019_release_v0.01/func_test_v0.01/soft/func/inst/n15_jr.S:154
    1120:	02405026 	xor	t2,s2,zero
/home/cs/nscscc2019/nscscc2019_release_v0.01/func_test_v0.01/soft/func/inst/n15_jr.S:155
    1124:	34090001 	li	t1,0x1
/home/cs/nscscc2019/nscscc2019_release_v0.01/func_test_v0.01/soft/func/inst/n15_jr.S:156
    1128:	11490002 	beq	t2,t1,1134 <inst_error>
/home/cs/nscscc2019/nscscc2019_release_v0.01/func_test_v0.01/soft/func/inst/n15_jr.S:158
    112c:	00000000 	nop
/home/cs/nscscc2019/nscscc2019_release_v0.01/func_test_v0.01/soft/func/inst/n15_jr.S:160
    1130:	26730001 	addiu	s3,s3,1

00001134 <inst_error>:
/home/cs/nscscc2019/nscscc2019_release_v0.01/func_test_v0.01/soft/func/inst/n15_jr.S:164
    1134:	340a0018 	li	t2,0x18
/home/cs/nscscc2019/nscscc2019_release_v0.01/func_test_v0.01/soft/func/inst/n15_jr.S:165
    1138:	01504804 	sllv	t1,s0,t2
/home/cs/nscscc2019/nscscc2019_release_v0.01/func_test_v0.01/soft/func/inst/n15_jr.S:167
    113c:	01334025 	or	t0,t1,s3
/home/cs/nscscc2019/nscscc2019_release_v0.01/func_test_v0.01/soft/func/inst/n15_jr.S:168
    1140:	ae280000 	sw	t0,0(s1)
/home/cs/nscscc2019/nscscc2019_release_v0.01/func_test_v0.01/soft/func/inst/n15_jr.S:169
    1144:	03e00008 	jr	ra
/home/cs/nscscc2019/nscscc2019_release_v0.01/func_test_v0.01/soft/func/inst/n15_jr.S:170
    1148:	00000000 	nop
    114c:	00000000 	nop

00001150 <n1_lui_test>:
/home/cs/nscscc2019/nscscc2019_release_v0.01/func_test_v0.01/soft/func/inst/n1_lui.S:7
    1150:	26100001 	addiu	s0,s0,1
/home/cs/nscscc2019/nscscc2019_release_v0.01/func_test_v0.01/soft/func/inst/n1_lui.S:8
    1154:	24120000 	li	s2,0
/home/cs/nscscc2019/nscscc2019_release_v0.01/func_test_v0.01/soft/func/inst/n1_lui.S:9
    1158:	3c0a0001 	lui	t2,0x1
/home/cs/nscscc2019/nscscc2019_release_v0.01/func_test_v0.01/soft/func/inst/n1_lui.S:11
    115c:	24090000 	li	t1,0
/home/cs/nscscc2019/nscscc2019_release_v0.01/func_test_v0.01/soft/func/inst/n1_lui.S:12
    1160:	3c040000 	lui	a0,0x0
    1164:	3c080000 	lui	t0,0x0
    1168:	00892021 	addu	a0,a0,t1
    116c:	012a4821 	addu	t1,t1,t2
    1170:	01045826 	xor	t3,t0,a0
    1174:	340c0001 	li	t4,0x1
    1178:	116c007e 	beq	t3,t4,1374 <inst_error>
    117c:	00000000 	nop
/home/cs/nscscc2019/nscscc2019_release_v0.01/func_test_v0.01/soft/func/inst/n1_lui.S:13
    1180:	3c040000 	lui	a0,0x0
    1184:	3c080001 	lui	t0,0x1
    1188:	00892021 	addu	a0,a0,t1
    118c:	012a4821 	addu	t1,t1,t2
    1190:	01045826 	xor	t3,t0,a0
    1194:	340c0001 	li	t4,0x1
    1198:	116c0076 	beq	t3,t4,1374 <inst_error>
    119c:	00000000 	nop
/home/cs/nscscc2019/nscscc2019_release_v0.01/func_test_v0.01/soft/func/inst/n1_lui.S:14
    11a0:	3c040000 	lui	a0,0x0
    11a4:	3c080002 	lui	t0,0x2
    11a8:	00892021 	addu	a0,a0,t1
    11ac:	012a4821 	addu	t1,t1,t2
    11b0:	01045826 	xor	t3,t0,a0
    11b4:	340c0001 	li	t4,0x1
    11b8:	116c006e 	beq	t3,t4,1374 <inst_error>
    11bc:	00000000 	nop
/home/cs/nscscc2019/nscscc2019_release_v0.01/func_test_v0.01/soft/func/inst/n1_lui.S:15
    11c0:	3c040000 	lui	a0,0x0
    11c4:	3c080003 	lui	t0,0x3
    11c8:	00892021 	addu	a0,a0,t1
    11cc:	012a4821 	addu	t1,t1,t2
    11d0:	01045826 	xor	t3,t0,a0
    11d4:	340c0001 	li	t4,0x1
    11d8:	116c0066 	beq	t3,t4,1374 <inst_error>
    11dc:	00000000 	nop
/home/cs/nscscc2019/nscscc2019_release_v0.01/func_test_v0.01/soft/func/inst/n1_lui.S:16
    11e0:	3c040000 	lui	a0,0x0
    11e4:	3c080004 	lui	t0,0x4
    11e8:	00892021 	addu	a0,a0,t1
    11ec:	012a4821 	addu	t1,t1,t2
    11f0:	01045826 	xor	t3,t0,a0
    11f4:	340c0001 	li	t4,0x1
    11f8:	116c005e 	beq	t3,t4,1374 <inst_error>
    11fc:	00000000 	nop
/home/cs/nscscc2019/nscscc2019_release_v0.01/func_test_v0.01/soft/func/inst/n1_lui.S:17
    1200:	3c040000 	lui	a0,0x0
    1204:	3c080005 	lui	t0,0x5
    1208:	00892021 	addu	a0,a0,t1
    120c:	012a4821 	addu	t1,t1,t2
    1210:	01045826 	xor	t3,t0,a0
    1214:	340c0001 	li	t4,0x1
    1218:	116c0056 	beq	t3,t4,1374 <inst_error>
    121c:	00000000 	nop
/home/cs/nscscc2019/nscscc2019_release_v0.01/func_test_v0.01/soft/func/inst/n1_lui.S:18
    1220:	3c040000 	lui	a0,0x0
    1224:	3c080006 	lui	t0,0x6
    1228:	00892021 	addu	a0,a0,t1
    122c:	012a4821 	addu	t1,t1,t2
    1230:	01045826 	xor	t3,t0,a0
    1234:	340c0001 	li	t4,0x1
    1238:	116c004e 	beq	t3,t4,1374 <inst_error>
    123c:	00000000 	nop
/home/cs/nscscc2019/nscscc2019_release_v0.01/func_test_v0.01/soft/func/inst/n1_lui.S:19
    1240:	3c040000 	lui	a0,0x0
    1244:	3c080007 	lui	t0,0x7
    1248:	00892021 	addu	a0,a0,t1
    124c:	012a4821 	addu	t1,t1,t2
    1250:	01045826 	xor	t3,t0,a0
    1254:	340c0001 	li	t4,0x1
    1258:	116c0046 	beq	t3,t4,1374 <inst_error>
    125c:	00000000 	nop
/home/cs/nscscc2019/nscscc2019_release_v0.01/func_test_v0.01/soft/func/inst/n1_lui.S:20
    1260:	3c040000 	lui	a0,0x0
    1264:	3c080008 	lui	t0,0x8
    1268:	00892021 	addu	a0,a0,t1
    126c:	012a4821 	addu	t1,t1,t2
    1270:	01045826 	xor	t3,t0,a0
    1274:	340c0001 	li	t4,0x1
    1278:	116c003e 	beq	t3,t4,1374 <inst_error>
    127c:	00000000 	nop
/home/cs/nscscc2019/nscscc2019_release_v0.01/func_test_v0.01/soft/func/inst/n1_lui.S:21
    1280:	3c040000 	lui	a0,0x0
    1284:	3c080009 	lui	t0,0x9
    1288:	00892021 	addu	a0,a0,t1
    128c:	012a4821 	addu	t1,t1,t2
    1290:	01045826 	xor	t3,t0,a0
    1294:	340c0001 	li	t4,0x1
    1298:	116c0036 	beq	t3,t4,1374 <inst_error>
    129c:	00000000 	nop
/home/cs/nscscc2019/nscscc2019_release_v0.01/func_test_v0.01/soft/func/inst/n1_lui.S:22
    12a0:	3c040000 	lui	a0,0x0
    12a4:	3c08000a 	lui	t0,0xa
    12a8:	00892021 	addu	a0,a0,t1
    12ac:	012a4821 	addu	t1,t1,t2
    12b0:	01045826 	xor	t3,t0,a0
    12b4:	340c0001 	li	t4,0x1
    12b8:	116c002e 	beq	t3,t4,1374 <inst_error>
    12bc:	00000000 	nop
/home/cs/nscscc2019/nscscc2019_release_v0.01/func_test_v0.01/soft/func/inst/n1_lui.S:23
    12c0:	3c040000 	lui	a0,0x0
    12c4:	3c08000b 	lui	t0,0xb
    12c8:	00892021 	addu	a0,a0,t1
    12cc:	012a4821 	addu	t1,t1,t2
    12d0:	01045826 	xor	t3,t0,a0
    12d4:	340c0001 	li	t4,0x1
    12d8:	116c0026 	beq	t3,t4,1374 <inst_error>
    12dc:	00000000 	nop
/home/cs/nscscc2019/nscscc2019_release_v0.01/func_test_v0.01/soft/func/inst/n1_lui.S:24
    12e0:	3c040000 	lui	a0,0x0
    12e4:	3c08000c 	lui	t0,0xc
    12e8:	00892021 	addu	a0,a0,t1
    12ec:	012a4821 	addu	t1,t1,t2
    12f0:	01045826 	xor	t3,t0,a0
    12f4:	340c0001 	li	t4,0x1
    12f8:	116c001e 	beq	t3,t4,1374 <inst_error>
    12fc:	00000000 	nop
/home/cs/nscscc2019/nscscc2019_release_v0.01/func_test_v0.01/soft/func/inst/n1_lui.S:25
    1300:	3c040000 	lui	a0,0x0
    1304:	3c08000d 	lui	t0,0xd
    1308:	00892021 	addu	a0,a0,t1
    130c:	012a4821 	addu	t1,t1,t2
    1310:	01045826 	xor	t3,t0,a0
    1314:	340c0001 	li	t4,0x1
    1318:	116c0016 	beq	t3,t4,1374 <inst_error>
    131c:	00000000 	nop
/home/cs/nscscc2019/nscscc2019_release_v0.01/func_test_v0.01/soft/func/inst/n1_lui.S:26
    1320:	3c040000 	lui	a0,0x0
    1324:	3c08000e 	lui	t0,0xe
    1328:	00892021 	addu	a0,a0,t1
    132c:	012a4821 	addu	t1,t1,t2
    1330:	01045826 	xor	t3,t0,a0
    1334:	340c0001 	li	t4,0x1
    1338:	116c000e 	beq	t3,t4,1374 <inst_error>
    133c:	00000000 	nop
/home/cs/nscscc2019/nscscc2019_release_v0.01/func_test_v0.01/soft/func/inst/n1_lui.S:27
    1340:	3c040000 	lui	a0,0x0
    1344:	3c08000f 	lui	t0,0xf
    1348:	00892021 	addu	a0,a0,t1
    134c:	012a4821 	addu	t1,t1,t2
    1350:	01045826 	xor	t3,t0,a0
    1354:	340c0001 	li	t4,0x1
    1358:	116c0006 	beq	t3,t4,1374 <inst_error>
    135c:	00000000 	nop
/home/cs/nscscc2019/nscscc2019_release_v0.01/func_test_v0.01/soft/func/inst/n1_lui.S:217
    1360:	02405026 	xor	t2,s2,zero
/home/cs/nscscc2019/nscscc2019_release_v0.01/func_test_v0.01/soft/func/inst/n1_lui.S:218
    1364:	34090001 	li	t1,0x1
/home/cs/nscscc2019/nscscc2019_release_v0.01/func_test_v0.01/soft/func/inst/n1_lui.S:219
    1368:	11490002 	beq	t2,t1,1374 <inst_error>
/home/cs/nscscc2019/nscscc2019_release_v0.01/func_test_v0.01/soft/func/inst/n1_lui.S:221
    136c:	00000000 	nop
/home/cs/nscscc2019/nscscc2019_release_v0.01/func_test_v0.01/soft/func/inst/n1_lui.S:223
    1370:	26730001 	addiu	s3,s3,1

00001374 <inst_error>:
/home/cs/nscscc2019/nscscc2019_release_v0.01/func_test_v0.01/soft/func/inst/n1_lui.S:227
    1374:	340a0018 	li	t2,0x18
/home/cs/nscscc2019/nscscc2019_release_v0.01/func_test_v0.01/soft/func/inst/n1_lui.S:228
    1378:	01504804 	sllv	t1,s0,t2
/home/cs/nscscc2019/nscscc2019_release_v0.01/func_test_v0.01/soft/func/inst/n1_lui.S:230
    137c:	01334025 	or	t0,t1,s3
/home/cs/nscscc2019/nscscc2019_release_v0.01/func_test_v0.01/soft/func/inst/n1_lui.S:231
    1380:	ae280000 	sw	t0,0(s1)
/home/cs/nscscc2019/nscscc2019_release_v0.01/func_test_v0.01/soft/func/inst/n1_lui.S:232
    1384:	03e00008 	jr	ra
/home/cs/nscscc2019/nscscc2019_release_v0.01/func_test_v0.01/soft/func/inst/n1_lui.S:233
    1388:	00000000 	nop
    138c:	00000000 	nop

00001390 <n21_add_test>:
/home/cs/nscscc2019/nscscc2019_release_v0.01/func_test_v0.01/soft/func/inst/n21_add.S:7
    1390:	26100001 	addiu	s0,s0,1
/home/cs/nscscc2019/nscscc2019_release_v0.01/func_test_v0.01/soft/func/inst/n21_add.S:8
    1394:	24120000 	li	s2,0
/home/cs/nscscc2019/nscscc2019_release_v0.01/func_test_v0.01/soft/func/inst/n21_add.S:10
    1398:	3c080480 	lui	t0,0x480
    139c:	3508ff04 	ori	t0,t0,0xff04
    13a0:	3c094093 	lui	t1,0x4093
    13a4:	35293204 	ori	t1,t1,0x3204
    13a8:	3c034514 	lui	v1,0x4514
    13ac:	34633108 	ori	v1,v1,0x3108
    13b0:	01091020 	add	v0,t0,t1
    13b4:	00435826 	xor	t3,v0,v1
    13b8:	340c0001 	li	t4,0x1
    13bc:	116c0032 	beq	t3,t4,1488 <inst_error>
    13c0:	00000000 	nop
/home/cs/nscscc2019/nscscc2019_release_v0.01/func_test_v0.01/soft/func/inst/n21_add.S:11
    13c4:	3c082a19 	lui	t0,0x2a19
    13c8:	3508dd40 	ori	t0,t0,0xdd40
    13cc:	3c09a879 	lui	t1,0xa879
    13d0:	352971e0 	ori	t1,t1,0x71e0
    13d4:	3c03d293 	lui	v1,0xd293
    13d8:	34634f20 	ori	v1,v1,0x4f20
    13dc:	01091020 	add	v0,t0,t1
    13e0:	00435826 	xor	t3,v0,v1
    13e4:	340c0001 	li	t4,0x1
    13e8:	116c0027 	beq	t3,t4,1488 <inst_error>
    13ec:	00000000 	nop
/home/cs/nscscc2019/nscscc2019_release_v0.01/func_test_v0.01/soft/func/inst/n21_add.S:12
    13f0:	3c088061 	lui	t0,0x8061
    13f4:	35083360 	ori	t0,t0,0x3360
    13f8:	3c0942ad 	lui	t1,0x42ad
    13fc:	3529f91d 	ori	t1,t1,0xf91d
    1400:	3c03c30f 	lui	v1,0xc30f
    1404:	34632c7d 	ori	v1,v1,0x2c7d
    1408:	01091020 	add	v0,t0,t1
    140c:	00435826 	xor	t3,v0,v1
    1410:	340c0001 	li	t4,0x1
    1414:	116c001c 	beq	t3,t4,1488 <inst_error>
    1418:	00000000 	nop
/home/cs/nscscc2019/nscscc2019_release_v0.01/func_test_v0.01/soft/func/inst/n21_add.S:13
    141c:	3c085bec 	lui	t0,0x5bec
    1420:	350825e2 	ori	t0,t0,0x25e2
    1424:	3c09f96e 	lui	t1,0xf96e
    1428:	3529dfe4 	ori	t1,t1,0xdfe4
    142c:	3c03555b 	lui	v1,0x555b
    1430:	346305c6 	ori	v1,v1,0x5c6
    1434:	01091020 	add	v0,t0,t1
    1438:	00435826 	xor	t3,v0,v1
    143c:	340c0001 	li	t4,0x1
    1440:	116c0011 	beq	t3,t4,1488 <inst_error>
    1444:	00000000 	nop
/home/cs/nscscc2019/nscscc2019_release_v0.01/func_test_v0.01/soft/func/inst/n21_add.S:14
    1448:	3c0870b9 	lui	t0,0x70b9
    144c:	3508a200 	ori	t0,t0,0xa200
    1450:	3c09d9bf 	lui	t1,0xd9bf
    1454:	35294900 	ori	t1,t1,0x4900
    1458:	3c034a78 	lui	v1,0x4a78
    145c:	3463eb00 	ori	v1,v1,0xeb00
    1460:	01091020 	add	v0,t0,t1
    1464:	00435826 	xor	t3,v0,v1
    1468:	340c0001 	li	t4,0x1
    146c:	116c0006 	beq	t3,t4,1488 <inst_error>
    1470:	00000000 	nop
/home/cs/nscscc2019/nscscc2019_release_v0.01/func_test_v0.01/soft/func/inst/n21_add.S:262
    1474:	02405026 	xor	t2,s2,zero
/home/cs/nscscc2019/nscscc2019_release_v0.01/func_test_v0.01/soft/func/inst/n21_add.S:263
    1478:	34090001 	li	t1,0x1
/home/cs/nscscc2019/nscscc2019_release_v0.01/func_test_v0.01/soft/func/inst/n21_add.S:264
    147c:	11490002 	beq	t2,t1,1488 <inst_error>
/home/cs/nscscc2019/nscscc2019_release_v0.01/func_test_v0.01/soft/func/inst/n21_add.S:266
    1480:	00000000 	nop
/home/cs/nscscc2019/nscscc2019_release_v0.01/func_test_v0.01/soft/func/inst/n21_add.S:268
    1484:	26730001 	addiu	s3,s3,1

00001488 <inst_error>:
/home/cs/nscscc2019/nscscc2019_release_v0.01/func_test_v0.01/soft/func/inst/n21_add.S:272
    1488:	340a0018 	li	t2,0x18
/home/cs/nscscc2019/nscscc2019_release_v0.01/func_test_v0.01/soft/func/inst/n21_add.S:273
    148c:	01504804 	sllv	t1,s0,t2
/home/cs/nscscc2019/nscscc2019_release_v0.01/func_test_v0.01/soft/func/inst/n21_add.S:275
    1490:	01334025 	or	t0,t1,s3
/home/cs/nscscc2019/nscscc2019_release_v0.01/func_test_v0.01/soft/func/inst/n21_add.S:276
    1494:	ae280000 	sw	t0,0(s1)
/home/cs/nscscc2019/nscscc2019_release_v0.01/func_test_v0.01/soft/func/inst/n21_add.S:277
    1498:	03e00008 	jr	ra
/home/cs/nscscc2019/nscscc2019_release_v0.01/func_test_v0.01/soft/func/inst/n21_add.S:278
    149c:	00000000 	nop

000014a0 <n22_addi_test>:
/home/cs/nscscc2019/nscscc2019_release_v0.01/func_test_v0.01/soft/func/inst/n22_addi.S:7
    14a0:	26100001 	addiu	s0,s0,1
/home/cs/nscscc2019/nscscc2019_release_v0.01/func_test_v0.01/soft/func/inst/n22_addi.S:8
    14a4:	24120000 	li	s2,0
/home/cs/nscscc2019/nscscc2019_release_v0.01/func_test_v0.01/soft/func/inst/n22_addi.S:10
    14a8:	3c080151 	lui	t0,0x151
    14ac:	3508e5c0 	ori	t0,t0,0xe5c0
    14b0:	3c030151 	lui	v1,0x151
    14b4:	34639f05 	ori	v1,v1,0x9f05
    14b8:	2102b945 	addi	v0,t0,-18107
    14bc:	00435826 	xor	t3,v0,v1
    14c0:	340c0001 	li	t4,0x1
    14c4:	116c002a 	beq	t3,t4,1570 <inst_error>
    14c8:	00000000 	nop
/home/cs/nscscc2019/nscscc2019_release_v0.01/func_test_v0.01/soft/func/inst/n22_addi.S:11
    14cc:	3c086482 	lui	t0,0x6482
    14d0:	35081568 	ori	t0,t0,0x1568
    14d4:	3c036481 	lui	v1,0x6481
    14d8:	3463f98b 	ori	v1,v1,0xf98b
    14dc:	2102e423 	addi	v0,t0,-7133
    14e0:	00435826 	xor	t3,v0,v1
    14e4:	340c0001 	li	t4,0x1
    14e8:	116c0021 	beq	t3,t4,1570 <inst_error>
    14ec:	00000000 	nop
/home/cs/nscscc2019/nscscc2019_release_v0.01/func_test_v0.01/soft/func/inst/n22_addi.S:12
    14f0:	3c08f487 	lui	t0,0xf487
    14f4:	35086ad2 	ori	t0,t0,0x6ad2
    14f8:	3c03f487 	lui	v1,0xf487
    14fc:	346327f2 	ori	v1,v1,0x27f2
    1500:	2102bd20 	addi	v0,t0,-17120
    1504:	00435826 	xor	t3,v0,v1
    1508:	340c0001 	li	t4,0x1
    150c:	116c0018 	beq	t3,t4,1570 <inst_error>
    1510:	00000000 	nop
/home/cs/nscscc2019/nscscc2019_release_v0.01/func_test_v0.01/soft/func/inst/n22_addi.S:13
    1514:	3c081fea 	lui	t0,0x1fea
    1518:	35084dca 	ori	t0,t0,0x4dca
    151c:	3c031fea 	lui	v1,0x1fea
    1520:	346368d2 	ori	v1,v1,0x68d2
    1524:	21021b08 	addi	v0,t0,6920
    1528:	00435826 	xor	t3,v0,v1
    152c:	340c0001 	li	t4,0x1
    1530:	116c000f 	beq	t3,t4,1570 <inst_error>
    1534:	00000000 	nop
/home/cs/nscscc2019/nscscc2019_release_v0.01/func_test_v0.01/soft/func/inst/n22_addi.S:14
    1538:	3c08a139 	lui	t0,0xa139
    153c:	3508a6db 	ori	t0,t0,0xa6db
    1540:	3c03a139 	lui	v1,0xa139
    1544:	3463aa77 	ori	v1,v1,0xaa77
    1548:	2102039c 	addi	v0,t0,924
    154c:	00435826 	xor	t3,v0,v1
    1550:	340c0001 	li	t4,0x1
    1554:	116c0006 	beq	t3,t4,1570 <inst_error>
    1558:	00000000 	nop
/home/cs/nscscc2019/nscscc2019_release_v0.01/func_test_v0.01/soft/func/inst/n22_addi.S:313
    155c:	02405026 	xor	t2,s2,zero
/home/cs/nscscc2019/nscscc2019_release_v0.01/func_test_v0.01/soft/func/inst/n22_addi.S:314
    1560:	34090001 	li	t1,0x1
/home/cs/nscscc2019/nscscc2019_release_v0.01/func_test_v0.01/soft/func/inst/n22_addi.S:315
    1564:	11490002 	beq	t2,t1,1570 <inst_error>
/home/cs/nscscc2019/nscscc2019_release_v0.01/func_test_v0.01/soft/func/inst/n22_addi.S:317
    1568:	00000000 	nop
/home/cs/nscscc2019/nscscc2019_release_v0.01/func_test_v0.01/soft/func/inst/n22_addi.S:319
    156c:	26730001 	addiu	s3,s3,1

00001570 <inst_error>:
/home/cs/nscscc2019/nscscc2019_release_v0.01/func_test_v0.01/soft/func/inst/n22_addi.S:323
    1570:	340a0018 	li	t2,0x18
/home/cs/nscscc2019/nscscc2019_release_v0.01/func_test_v0.01/soft/func/inst/n22_addi.S:324
    1574:	01504804 	sllv	t1,s0,t2
/home/cs/nscscc2019/nscscc2019_release_v0.01/func_test_v0.01/soft/func/inst/n22_addi.S:326
    1578:	01334025 	or	t0,t1,s3
/home/cs/nscscc2019/nscscc2019_release_v0.01/func_test_v0.01/soft/func/inst/n22_addi.S:327
    157c:	ae280000 	sw	t0,0(s1)
/home/cs/nscscc2019/nscscc2019_release_v0.01/func_test_v0.01/soft/func/inst/n22_addi.S:328
    1580:	03e00008 	jr	ra
/home/cs/nscscc2019/nscscc2019_release_v0.01/func_test_v0.01/soft/func/inst/n22_addi.S:329
    1584:	00000000 	nop
	...

00001590 <n23_sub_test>:
/home/cs/nscscc2019/nscscc2019_release_v0.01/func_test_v0.01/soft/func/inst/n23_sub.S:7
    1590:	26100001 	addiu	s0,s0,1
/home/cs/nscscc2019/nscscc2019_release_v0.01/func_test_v0.01/soft/func/inst/n23_sub.S:8
    1594:	24120000 	li	s2,0
/home/cs/nscscc2019/nscscc2019_release_v0.01/func_test_v0.01/soft/func/inst/n23_sub.S:10
    1598:	3c0814ff 	lui	t0,0x14ff
    159c:	3508b0e6 	ori	t0,t0,0xb0e6
    15a0:	3c09088c 	lui	t1,0x88c
    15a4:	3529b248 	ori	t1,t1,0xb248
    15a8:	3c030c72 	lui	v1,0xc72
    15ac:	3463fe9e 	ori	v1,v1,0xfe9e
    15b0:	01091022 	sub	v0,t0,t1
    15b4:	00435826 	xor	t3,v0,v1
    15b8:	340c0001 	li	t4,0x1
    15bc:	116c0032 	beq	t3,t4,1688 <inst_error>
    15c0:	00000000 	nop
/home/cs/nscscc2019/nscscc2019_release_v0.01/func_test_v0.01/soft/func/inst/n23_sub.S:11
    15c4:	3c085c68 	lui	t0,0x5c68
    15c8:	35085e22 	ori	t0,t0,0x5e22
    15cc:	3c095deb 	lui	t1,0x5deb
    15d0:	35291abc 	ori	t1,t1,0x1abc
    15d4:	3c03fe7d 	lui	v1,0xfe7d
    15d8:	34634366 	ori	v1,v1,0x4366
    15dc:	01091022 	sub	v0,t0,t1
    15e0:	00435826 	xor	t3,v0,v1
    15e4:	340c0001 	li	t4,0x1
    15e8:	116c0027 	beq	t3,t4,1688 <inst_error>
    15ec:	00000000 	nop
/home/cs/nscscc2019/nscscc2019_release_v0.01/func_test_v0.01/soft/func/inst/n23_sub.S:12
    15f0:	3c08b2a2 	lui	t0,0xb2a2
    15f4:	350889a4 	ori	t0,t0,0x89a4
    15f8:	3c09fa69 	lui	t1,0xfa69
    15fc:	352908da 	ori	t1,t1,0x8da
    1600:	3c03b839 	lui	v1,0xb839
    1604:	346380ca 	ori	v1,v1,0x80ca
    1608:	01091022 	sub	v0,t0,t1
    160c:	00435826 	xor	t3,v0,v1
    1610:	340c0001 	li	t4,0x1
    1614:	116c001c 	beq	t3,t4,1688 <inst_error>
    1618:	00000000 	nop
/home/cs/nscscc2019/nscscc2019_release_v0.01/func_test_v0.01/soft/func/inst/n23_sub.S:13
    161c:	3c08b112 	lui	t0,0xb112
    1620:	3508c8b8 	ori	t0,t0,0xc8b8
    1624:	3c090767 	lui	t1,0x767
    1628:	3529b30a 	ori	t1,t1,0xb30a
    162c:	3c03a9ab 	lui	v1,0xa9ab
    1630:	346315ae 	ori	v1,v1,0x15ae
    1634:	01091022 	sub	v0,t0,t1
    1638:	00435826 	xor	t3,v0,v1
    163c:	340c0001 	li	t4,0x1
    1640:	116c0011 	beq	t3,t4,1688 <inst_error>
    1644:	00000000 	nop
/home/cs/nscscc2019/nscscc2019_release_v0.01/func_test_v0.01/soft/func/inst/n23_sub.S:14
    1648:	3c087d61 	lui	t0,0x7d61
    164c:	3508bd38 	ori	t0,t0,0xbd38
    1650:	3c092364 	lui	t1,0x2364
    1654:	3529d999 	ori	t1,t1,0xd999
    1658:	3c0359fc 	lui	v1,0x59fc
    165c:	3463e39f 	ori	v1,v1,0xe39f
    1660:	01091022 	sub	v0,t0,t1
    1664:	00435826 	xor	t3,v0,v1
    1668:	340c0001 	li	t4,0x1
    166c:	116c0006 	beq	t3,t4,1688 <inst_error>
    1670:	00000000 	nop
/home/cs/nscscc2019/nscscc2019_release_v0.01/func_test_v0.01/soft/func/inst/n23_sub.S:257
    1674:	02405026 	xor	t2,s2,zero
/home/cs/nscscc2019/nscscc2019_release_v0.01/func_test_v0.01/soft/func/inst/n23_sub.S:258
    1678:	34090001 	li	t1,0x1
/home/cs/nscscc2019/nscscc2019_release_v0.01/func_test_v0.01/soft/func/inst/n23_sub.S:259
    167c:	11490002 	beq	t2,t1,1688 <inst_error>
/home/cs/nscscc2019/nscscc2019_release_v0.01/func_test_v0.01/soft/func/inst/n23_sub.S:261
    1680:	00000000 	nop
/home/cs/nscscc2019/nscscc2019_release_v0.01/func_test_v0.01/soft/func/inst/n23_sub.S:263
    1684:	26730001 	addiu	s3,s3,1

00001688 <inst_error>:
/home/cs/nscscc2019/nscscc2019_release_v0.01/func_test_v0.01/soft/func/inst/n23_sub.S:267
    1688:	340a0018 	li	t2,0x18
/home/cs/nscscc2019/nscscc2019_release_v0.01/func_test_v0.01/soft/func/inst/n23_sub.S:268
    168c:	01504804 	sllv	t1,s0,t2
/home/cs/nscscc2019/nscscc2019_release_v0.01/func_test_v0.01/soft/func/inst/n23_sub.S:270
    1690:	01334025 	or	t0,t1,s3
/home/cs/nscscc2019/nscscc2019_release_v0.01/func_test_v0.01/soft/func/inst/n23_sub.S:271
    1694:	ae280000 	sw	t0,0(s1)
/home/cs/nscscc2019/nscscc2019_release_v0.01/func_test_v0.01/soft/func/inst/n23_sub.S:272
    1698:	03e00008 	jr	ra
/home/cs/nscscc2019/nscscc2019_release_v0.01/func_test_v0.01/soft/func/inst/n23_sub.S:273
    169c:	00000000 	nop

000016a0 <n24_subu_test>:
/home/cs/nscscc2019/nscscc2019_release_v0.01/func_test_v0.01/soft/func/inst/n24_subu.S:7
    16a0:	26100001 	addiu	s0,s0,1
/home/cs/nscscc2019/nscscc2019_release_v0.01/func_test_v0.01/soft/func/inst/n24_subu.S:8
    16a4:	24120000 	li	s2,0
/home/cs/nscscc2019/nscscc2019_release_v0.01/func_test_v0.01/soft/func/inst/n24_subu.S:10
    16a8:	3c08d6fc 	lui	t0,0xd6fc
    16ac:	35080584 	ori	t0,t0,0x584
    16b0:	3c095f97 	lui	t1,0x5f97
    16b4:	352965a8 	ori	t1,t1,0x65a8
    16b8:	3c037764 	lui	v1,0x7764
    16bc:	34639fdc 	ori	v1,v1,0x9fdc
    16c0:	01091023 	subu	v0,t0,t1
    16c4:	00435826 	xor	t3,v0,v1
    16c8:	340c0001 	li	t4,0x1
    16cc:	116c0032 	beq	t3,t4,1798 <inst_error>
    16d0:	00000000 	nop
/home/cs/nscscc2019/nscscc2019_release_v0.01/func_test_v0.01/soft/func/inst/n24_subu.S:11
    16d4:	3c08bf9c 	lui	t0,0xbf9c
    16d8:	350895c2 	ori	t0,t0,0x95c2
    16dc:	3c093368 	lui	t1,0x3368
    16e0:	3529890e 	ori	t1,t1,0x890e
    16e4:	3c038c34 	lui	v1,0x8c34
    16e8:	34630cb4 	ori	v1,v1,0xcb4
    16ec:	01091023 	subu	v0,t0,t1
    16f0:	00435826 	xor	t3,v0,v1
    16f4:	340c0001 	li	t4,0x1
    16f8:	116c0027 	beq	t3,t4,1798 <inst_error>
    16fc:	00000000 	nop
/home/cs/nscscc2019/nscscc2019_release_v0.01/func_test_v0.01/soft/func/inst/n24_subu.S:12
    1700:	3c08da67 	lui	t0,0xda67
    1704:	3508a888 	ori	t0,t0,0xa888
    1708:	3c09a727 	lui	t1,0xa727
    170c:	3529b830 	ori	t1,t1,0xb830
    1710:	3c03333f 	lui	v1,0x333f
    1714:	3463f058 	ori	v1,v1,0xf058
    1718:	01091023 	subu	v0,t0,t1
    171c:	00435826 	xor	t3,v0,v1
    1720:	340c0001 	li	t4,0x1
    1724:	116c001c 	beq	t3,t4,1798 <inst_error>
    1728:	00000000 	nop
/home/cs/nscscc2019/nscscc2019_release_v0.01/func_test_v0.01/soft/func/inst/n24_subu.S:13
    172c:	3c082385 	lui	t0,0x2385
    1730:	35088808 	ori	t0,t0,0x8808
    1734:	3c09657a 	lui	t1,0x657a
    1738:	352998bc 	ori	t1,t1,0x98bc
    173c:	3c03be0a 	lui	v1,0xbe0a
    1740:	3463ef4c 	ori	v1,v1,0xef4c
    1744:	01091023 	subu	v0,t0,t1
    1748:	00435826 	xor	t3,v0,v1
    174c:	340c0001 	li	t4,0x1
    1750:	116c0011 	beq	t3,t4,1798 <inst_error>
    1754:	00000000 	nop
/home/cs/nscscc2019/nscscc2019_release_v0.01/func_test_v0.01/soft/func/inst/n24_subu.S:14
    1758:	3c08040a 	lui	t0,0x40a
    175c:	3508e1f0 	ori	t0,t0,0xe1f0
    1760:	3c094eff 	lui	t1,0x4eff
    1764:	35290fe8 	ori	t1,t1,0xfe8
    1768:	3c03b50b 	lui	v1,0xb50b
    176c:	3463d208 	ori	v1,v1,0xd208
    1770:	01091023 	subu	v0,t0,t1
    1774:	00435826 	xor	t3,v0,v1
    1778:	340c0001 	li	t4,0x1
    177c:	116c0006 	beq	t3,t4,1798 <inst_error>
    1780:	00000000 	nop
/home/cs/nscscc2019/nscscc2019_release_v0.01/func_test_v0.01/soft/func/inst/n24_subu.S:313
    1784:	02405026 	xor	t2,s2,zero
/home/cs/nscscc2019/nscscc2019_release_v0.01/func_test_v0.01/soft/func/inst/n24_subu.S:314
    1788:	34090001 	li	t1,0x1
/home/cs/nscscc2019/nscscc2019_release_v0.01/func_test_v0.01/soft/func/inst/n24_subu.S:315
    178c:	11490002 	beq	t2,t1,1798 <inst_error>
/home/cs/nscscc2019/nscscc2019_release_v0.01/func_test_v0.01/soft/func/inst/n24_subu.S:317
    1790:	00000000 	nop
/home/cs/nscscc2019/nscscc2019_release_v0.01/func_test_v0.01/soft/func/inst/n24_subu.S:319
    1794:	26730001 	addiu	s3,s3,1

00001798 <inst_error>:
/home/cs/nscscc2019/nscscc2019_release_v0.01/func_test_v0.01/soft/func/inst/n24_subu.S:323
    1798:	340a0018 	li	t2,0x18
/home/cs/nscscc2019/nscscc2019_release_v0.01/func_test_v0.01/soft/func/inst/n24_subu.S:324
    179c:	01504804 	sllv	t1,s0,t2
/home/cs/nscscc2019/nscscc2019_release_v0.01/func_test_v0.01/soft/func/inst/n24_subu.S:326
    17a0:	01334025 	or	t0,t1,s3
/home/cs/nscscc2019/nscscc2019_release_v0.01/func_test_v0.01/soft/func/inst/n24_subu.S:327
    17a4:	ae280000 	sw	t0,0(s1)
/home/cs/nscscc2019/nscscc2019_release_v0.01/func_test_v0.01/soft/func/inst/n24_subu.S:328
    17a8:	03e00008 	jr	ra
/home/cs/nscscc2019/nscscc2019_release_v0.01/func_test_v0.01/soft/func/inst/n24_subu.S:329
    17ac:	00000000 	nop

000017b0 <n26_and_test>:
/home/cs/nscscc2019/nscscc2019_release_v0.01/func_test_v0.01/soft/func/inst/n26_and.S:7
    17b0:	26100001 	addiu	s0,s0,1
/home/cs/nscscc2019/nscscc2019_release_v0.01/func_test_v0.01/soft/func/inst/n26_and.S:8
    17b4:	24120000 	li	s2,0
/home/cs/nscscc2019/nscscc2019_release_v0.01/func_test_v0.01/soft/func/inst/n26_and.S:10
    17b8:	3c085c95 	lui	t0,0x5c95
    17bc:	3508951a 	ori	t0,t0,0x951a
    17c0:	3c09ca00 	lui	t1,0xca00
    17c4:	3529c414 	ori	t1,t1,0xc414
    17c8:	3c034800 	lui	v1,0x4800
    17cc:	34638410 	ori	v1,v1,0x8410
    17d0:	01091024 	and	v0,t0,t1
    17d4:	00435826 	xor	t3,v0,v1
    17d8:	340c0001 	li	t4,0x1
    17dc:	116c0032 	beq	t3,t4,18a8 <inst_error>
    17e0:	00000000 	nop
/home/cs/nscscc2019/nscscc2019_release_v0.01/func_test_v0.01/soft/func/inst/n26_and.S:11
    17e4:	3c089ba8 	lui	t0,0x9ba8
    17e8:	3508ba70 	ori	t0,t0,0xba70
    17ec:	3c09e99f 	lui	t1,0xe99f
    17f0:	3529ce38 	ori	t1,t1,0xce38
    17f4:	3c038988 	lui	v1,0x8988
    17f8:	34638a30 	ori	v1,v1,0x8a30
    17fc:	01091024 	and	v0,t0,t1
    1800:	00435826 	xor	t3,v0,v1
    1804:	340c0001 	li	t4,0x1
    1808:	116c0027 	beq	t3,t4,18a8 <inst_error>
    180c:	00000000 	nop
/home/cs/nscscc2019/nscscc2019_release_v0.01/func_test_v0.01/soft/func/inst/n26_and.S:12
    1810:	3c08d303 	lui	t0,0xd303
    1814:	350819e0 	ori	t0,t0,0x19e0
    1818:	3c090ba4 	lui	t1,0xba4
    181c:	3529cff6 	ori	t1,t1,0xcff6
    1820:	3c030300 	lui	v1,0x300
    1824:	346309e0 	ori	v1,v1,0x9e0
    1828:	01091024 	and	v0,t0,t1
    182c:	00435826 	xor	t3,v0,v1
    1830:	340c0001 	li	t4,0x1
    1834:	116c001c 	beq	t3,t4,18a8 <inst_error>
    1838:	00000000 	nop
/home/cs/nscscc2019/nscscc2019_release_v0.01/func_test_v0.01/soft/func/inst/n26_and.S:13
    183c:	3c08ce69 	lui	t0,0xce69
    1840:	350812e8 	ori	t0,t0,0x12e8
    1844:	3c096676 	lui	t1,0x6676
    1848:	3529b20e 	ori	t1,t1,0xb20e
    184c:	3c034660 	lui	v1,0x4660
    1850:	34631208 	ori	v1,v1,0x1208
    1854:	01091024 	and	v0,t0,t1
    1858:	00435826 	xor	t3,v0,v1
    185c:	340c0001 	li	t4,0x1
    1860:	116c0011 	beq	t3,t4,18a8 <inst_error>
    1864:	00000000 	nop
/home/cs/nscscc2019/nscscc2019_release_v0.01/func_test_v0.01/soft/func/inst/n26_and.S:14
    1868:	3c081d33 	lui	t0,0x1d33
    186c:	35087960 	ori	t0,t0,0x7960
    1870:	3c09744d 	lui	t1,0x744d
    1874:	3529d280 	ori	t1,t1,0xd280
    1878:	3c031401 	lui	v1,0x1401
    187c:	34635000 	ori	v1,v1,0x5000
    1880:	01091024 	and	v0,t0,t1
    1884:	00435826 	xor	t3,v0,v1
    1888:	340c0001 	li	t4,0x1
    188c:	116c0006 	beq	t3,t4,18a8 <inst_error>
    1890:	00000000 	nop
/home/cs/nscscc2019/nscscc2019_release_v0.01/func_test_v0.01/soft/func/inst/n26_and.S:313
    1894:	02405026 	xor	t2,s2,zero
/home/cs/nscscc2019/nscscc2019_release_v0.01/func_test_v0.01/soft/func/inst/n26_and.S:314
    1898:	34090001 	li	t1,0x1
/home/cs/nscscc2019/nscscc2019_release_v0.01/func_test_v0.01/soft/func/inst/n26_and.S:315
    189c:	11490002 	beq	t2,t1,18a8 <inst_error>
/home/cs/nscscc2019/nscscc2019_release_v0.01/func_test_v0.01/soft/func/inst/n26_and.S:317
    18a0:	00000000 	nop
/home/cs/nscscc2019/nscscc2019_release_v0.01/func_test_v0.01/soft/func/inst/n26_and.S:319
    18a4:	26730001 	addiu	s3,s3,1

000018a8 <inst_error>:
/home/cs/nscscc2019/nscscc2019_release_v0.01/func_test_v0.01/soft/func/inst/n26_and.S:323
    18a8:	340a0018 	li	t2,0x18
/home/cs/nscscc2019/nscscc2019_release_v0.01/func_test_v0.01/soft/func/inst/n26_and.S:324
    18ac:	01504804 	sllv	t1,s0,t2
/home/cs/nscscc2019/nscscc2019_release_v0.01/func_test_v0.01/soft/func/inst/n26_and.S:326
    18b0:	01334025 	or	t0,t1,s3
/home/cs/nscscc2019/nscscc2019_release_v0.01/func_test_v0.01/soft/func/inst/n26_and.S:327
    18b4:	ae280000 	sw	t0,0(s1)
/home/cs/nscscc2019/nscscc2019_release_v0.01/func_test_v0.01/soft/func/inst/n26_and.S:328
    18b8:	03e00008 	jr	ra
/home/cs/nscscc2019/nscscc2019_release_v0.01/func_test_v0.01/soft/func/inst/n26_and.S:329
    18bc:	00000000 	nop

000018c0 <n27_andi_test>:
/home/cs/nscscc2019/nscscc2019_release_v0.01/func_test_v0.01/soft/func/inst/n27_andi.S:7
    18c0:	26100001 	addiu	s0,s0,1
/home/cs/nscscc2019/nscscc2019_release_v0.01/func_test_v0.01/soft/func/inst/n27_andi.S:8
    18c4:	24120000 	li	s2,0
/home/cs/nscscc2019/nscscc2019_release_v0.01/func_test_v0.01/soft/func/inst/n27_andi.S:10
    18c8:	3c084c23 	lui	t0,0x4c23
    18cc:	3508cdd4 	ori	t0,t0,0xcdd4
    18d0:	24034c80 	li	v1,19584
    18d4:	31025e89 	andi	v0,t0,0x5e89
    18d8:	00435826 	xor	t3,v0,v1
    18dc:	340c0001 	li	t4,0x1
    18e0:	116c0026 	beq	t3,t4,197c <inst_error>
    18e4:	00000000 	nop
/home/cs/nscscc2019/nscscc2019_release_v0.01/func_test_v0.01/soft/func/inst/n27_andi.S:11
    18e8:	3c08a128 	lui	t0,0xa128
    18ec:	35086600 	ori	t0,t0,0x6600
    18f0:	24030000 	li	v1,0
    18f4:	310208aa 	andi	v0,t0,0x8aa
    18f8:	00435826 	xor	t3,v0,v1
    18fc:	340c0001 	li	t4,0x1
    1900:	116c001e 	beq	t3,t4,197c <inst_error>
    1904:	00000000 	nop
/home/cs/nscscc2019/nscscc2019_release_v0.01/func_test_v0.01/soft/func/inst/n27_andi.S:12
    1908:	3c08ea42 	lui	t0,0xea42
    190c:	3508f8c0 	ori	t0,t0,0xf8c0
    1910:	34038800 	li	v1,0x8800
    1914:	31028d3e 	andi	v0,t0,0x8d3e
    1918:	00435826 	xor	t3,v0,v1
    191c:	340c0001 	li	t4,0x1
    1920:	116c0016 	beq	t3,t4,197c <inst_error>
    1924:	00000000 	nop
/home/cs/nscscc2019/nscscc2019_release_v0.01/func_test_v0.01/soft/func/inst/n27_andi.S:13
    1928:	3c08fbbe 	lui	t0,0xfbbe
    192c:	3508a379 	ori	t0,t0,0xa379
    1930:	34038250 	li	v1,0x8250
    1934:	31029654 	andi	v0,t0,0x9654
    1938:	00435826 	xor	t3,v0,v1
    193c:	340c0001 	li	t4,0x1
    1940:	116c000e 	beq	t3,t4,197c <inst_error>
    1944:	00000000 	nop
/home/cs/nscscc2019/nscscc2019_release_v0.01/func_test_v0.01/soft/func/inst/n27_andi.S:14
    1948:	3c08701f 	lui	t0,0x701f
    194c:	3508f540 	ori	t0,t0,0xf540
    1950:	24036000 	li	v1,24576
    1954:	3102601f 	andi	v0,t0,0x601f
    1958:	00435826 	xor	t3,v0,v1
    195c:	340c0001 	li	t4,0x1
    1960:	116c0006 	beq	t3,t4,197c <inst_error>
    1964:	00000000 	nop
/home/cs/nscscc2019/nscscc2019_release_v0.01/func_test_v0.01/soft/func/inst/n27_andi.S:313
    1968:	02405026 	xor	t2,s2,zero
/home/cs/nscscc2019/nscscc2019_release_v0.01/func_test_v0.01/soft/func/inst/n27_andi.S:314
    196c:	34090001 	li	t1,0x1
/home/cs/nscscc2019/nscscc2019_release_v0.01/func_test_v0.01/soft/func/inst/n27_andi.S:315
    1970:	11490002 	beq	t2,t1,197c <inst_error>
/home/cs/nscscc2019/nscscc2019_release_v0.01/func_test_v0.01/soft/func/inst/n27_andi.S:317
    1974:	00000000 	nop
/home/cs/nscscc2019/nscscc2019_release_v0.01/func_test_v0.01/soft/func/inst/n27_andi.S:319
    1978:	26730001 	addiu	s3,s3,1

0000197c <inst_error>:
/home/cs/nscscc2019/nscscc2019_release_v0.01/func_test_v0.01/soft/func/inst/n27_andi.S:323
    197c:	340a0018 	li	t2,0x18
/home/cs/nscscc2019/nscscc2019_release_v0.01/func_test_v0.01/soft/func/inst/n27_andi.S:324
    1980:	01504804 	sllv	t1,s0,t2
/home/cs/nscscc2019/nscscc2019_release_v0.01/func_test_v0.01/soft/func/inst/n27_andi.S:326
    1984:	01334025 	or	t0,t1,s3
/home/cs/nscscc2019/nscscc2019_release_v0.01/func_test_v0.01/soft/func/inst/n27_andi.S:327
    1988:	ae280000 	sw	t0,0(s1)
/home/cs/nscscc2019/nscscc2019_release_v0.01/func_test_v0.01/soft/func/inst/n27_andi.S:328
    198c:	03e00008 	jr	ra
/home/cs/nscscc2019/nscscc2019_release_v0.01/func_test_v0.01/soft/func/inst/n27_andi.S:329
    1990:	00000000 	nop
	...

000019a0 <n28_nor_test>:
/home/cs/nscscc2019/nscscc2019_release_v0.01/func_test_v0.01/soft/func/inst/n28_nor.S:7
    19a0:	26100001 	addiu	s0,s0,1
/home/cs/nscscc2019/nscscc2019_release_v0.01/func_test_v0.01/soft/func/inst/n28_nor.S:8
    19a4:	24120000 	li	s2,0
/home/cs/nscscc2019/nscscc2019_release_v0.01/func_test_v0.01/soft/func/inst/n28_nor.S:10
    19a8:	3c08ad9c 	lui	t0,0xad9c
    19ac:	3508c00e 	ori	t0,t0,0xc00e
    19b0:	3c0938b7 	lui	t1,0x38b7
    19b4:	3529ec24 	ori	t1,t1,0xec24
    19b8:	3c034240 	lui	v1,0x4240
    19bc:	346313d1 	ori	v1,v1,0x13d1
    19c0:	01091027 	nor	v0,t0,t1
    19c4:	00435826 	xor	t3,v0,v1
    19c8:	340c0001 	li	t4,0x1
    19cc:	116c0032 	beq	t3,t4,1a98 <inst_error>
    19d0:	00000000 	nop
/home/cs/nscscc2019/nscscc2019_release_v0.01/func_test_v0.01/soft/func/inst/n28_nor.S:11
    19d4:	3c08668d 	lui	t0,0x668d
    19d8:	35085db0 	ori	t0,t0,0x5db0
    19dc:	3c09a094 	lui	t1,0xa094
    19e0:	35295bf0 	ori	t1,t1,0x5bf0
    19e4:	3c031962 	lui	v1,0x1962
    19e8:	3463a00f 	ori	v1,v1,0xa00f
    19ec:	01091027 	nor	v0,t0,t1
    19f0:	00435826 	xor	t3,v0,v1
    19f4:	340c0001 	li	t4,0x1
    19f8:	116c0027 	beq	t3,t4,1a98 <inst_error>
    19fc:	00000000 	nop
/home/cs/nscscc2019/nscscc2019_release_v0.01/func_test_v0.01/soft/func/inst/n28_nor.S:12
    1a00:	3c086d83 	lui	t0,0x6d83
    1a04:	35080f90 	ori	t0,t0,0xf90
    1a08:	3c0966b3 	lui	t1,0x66b3
    1a0c:	35291460 	ori	t1,t1,0x1460
    1a10:	3c03904c 	lui	v1,0x904c
    1a14:	3463e00f 	ori	v1,v1,0xe00f
    1a18:	01091027 	nor	v0,t0,t1
    1a1c:	00435826 	xor	t3,v0,v1
    1a20:	340c0001 	li	t4,0x1
    1a24:	116c001c 	beq	t3,t4,1a98 <inst_error>
    1a28:	00000000 	nop
/home/cs/nscscc2019/nscscc2019_release_v0.01/func_test_v0.01/soft/func/inst/n28_nor.S:13
    1a2c:	3c086008 	lui	t0,0x6008
    1a30:	3508f35f 	ori	t0,t0,0xf35f
    1a34:	3c0954ae 	lui	t1,0x54ae
    1a38:	352981fa 	ori	t1,t1,0x81fa
    1a3c:	3c038b51 	lui	v1,0x8b51
    1a40:	34630c00 	ori	v1,v1,0xc00
    1a44:	01091027 	nor	v0,t0,t1
    1a48:	00435826 	xor	t3,v0,v1
    1a4c:	340c0001 	li	t4,0x1
    1a50:	116c0011 	beq	t3,t4,1a98 <inst_error>
    1a54:	00000000 	nop
/home/cs/nscscc2019/nscscc2019_release_v0.01/func_test_v0.01/soft/func/inst/n28_nor.S:14
    1a58:	3c08acc8 	lui	t0,0xacc8
    1a5c:	3508f2d2 	ori	t0,t0,0xf2d2
    1a60:	3c095149 	lui	t1,0x5149
    1a64:	35291760 	ori	t1,t1,0x1760
    1a68:	3c030236 	lui	v1,0x236
    1a6c:	3463080d 	ori	v1,v1,0x80d
    1a70:	01091027 	nor	v0,t0,t1
    1a74:	00435826 	xor	t3,v0,v1
    1a78:	340c0001 	li	t4,0x1
    1a7c:	116c0006 	beq	t3,t4,1a98 <inst_error>
    1a80:	00000000 	nop
/home/cs/nscscc2019/nscscc2019_release_v0.01/func_test_v0.01/soft/func/inst/n28_nor.S:313
    1a84:	02405026 	xor	t2,s2,zero
/home/cs/nscscc2019/nscscc2019_release_v0.01/func_test_v0.01/soft/func/inst/n28_nor.S:314
    1a88:	34090001 	li	t1,0x1
/home/cs/nscscc2019/nscscc2019_release_v0.01/func_test_v0.01/soft/func/inst/n28_nor.S:315
    1a8c:	11490002 	beq	t2,t1,1a98 <inst_error>
/home/cs/nscscc2019/nscscc2019_release_v0.01/func_test_v0.01/soft/func/inst/n28_nor.S:317
    1a90:	00000000 	nop
/home/cs/nscscc2019/nscscc2019_release_v0.01/func_test_v0.01/soft/func/inst/n28_nor.S:319
    1a94:	26730001 	addiu	s3,s3,1

00001a98 <inst_error>:
/home/cs/nscscc2019/nscscc2019_release_v0.01/func_test_v0.01/soft/func/inst/n28_nor.S:323
    1a98:	340a0018 	li	t2,0x18
/home/cs/nscscc2019/nscscc2019_release_v0.01/func_test_v0.01/soft/func/inst/n28_nor.S:324
    1a9c:	01504804 	sllv	t1,s0,t2
/home/cs/nscscc2019/nscscc2019_release_v0.01/func_test_v0.01/soft/func/inst/n28_nor.S:326
    1aa0:	01334025 	or	t0,t1,s3
/home/cs/nscscc2019/nscscc2019_release_v0.01/func_test_v0.01/soft/func/inst/n28_nor.S:327
    1aa4:	ae280000 	sw	t0,0(s1)
/home/cs/nscscc2019/nscscc2019_release_v0.01/func_test_v0.01/soft/func/inst/n28_nor.S:328
    1aa8:	03e00008 	jr	ra
/home/cs/nscscc2019/nscscc2019_release_v0.01/func_test_v0.01/soft/func/inst/n28_nor.S:329
    1aac:	00000000 	nop

00001ab0 <n29_ori_test>:
/home/cs/nscscc2019/nscscc2019_release_v0.01/func_test_v0.01/soft/func/inst/n29_ori.S:7
    1ab0:	26100001 	addiu	s0,s0,1
/home/cs/nscscc2019/nscscc2019_release_v0.01/func_test_v0.01/soft/func/inst/n29_ori.S:8
    1ab4:	24120000 	li	s2,0
/home/cs/nscscc2019/nscscc2019_release_v0.01/func_test_v0.01/soft/func/inst/n29_ori.S:10
    1ab8:	3c080d48 	lui	t0,0xd48
    1abc:	3508918a 	ori	t0,t0,0x918a
    1ac0:	3c030d48 	lui	v1,0xd48
    1ac4:	3463ffee 	ori	v1,v1,0xffee
    1ac8:	35027fe6 	ori	v0,t0,0x7fe6
    1acc:	00435826 	xor	t3,v0,v1
    1ad0:	340c0001 	li	t4,0x1
    1ad4:	116c002a 	beq	t3,t4,1b80 <inst_error>
    1ad8:	00000000 	nop
/home/cs/nscscc2019/nscscc2019_release_v0.01/func_test_v0.01/soft/func/inst/n29_ori.S:11
    1adc:	3c08891d 	lui	t0,0x891d
    1ae0:	350817a0 	ori	t0,t0,0x17a0
    1ae4:	3c03891d 	lui	v1,0x891d
    1ae8:	3463b7b4 	ori	v1,v1,0xb7b4
    1aec:	3502b034 	ori	v0,t0,0xb034
    1af0:	00435826 	xor	t3,v0,v1
    1af4:	340c0001 	li	t4,0x1
    1af8:	116c0021 	beq	t3,t4,1b80 <inst_error>
    1afc:	00000000 	nop
/home/cs/nscscc2019/nscscc2019_release_v0.01/func_test_v0.01/soft/func/inst/n29_ori.S:12
    1b00:	3c088bec 	lui	t0,0x8bec
    1b04:	3508f220 	ori	t0,t0,0xf220
    1b08:	3c038bec 	lui	v1,0x8bec
    1b0c:	3463fa20 	ori	v1,v1,0xfa20
    1b10:	3502d800 	ori	v0,t0,0xd800
    1b14:	00435826 	xor	t3,v0,v1
    1b18:	340c0001 	li	t4,0x1
    1b1c:	116c0018 	beq	t3,t4,1b80 <inst_error>
    1b20:	00000000 	nop
/home/cs/nscscc2019/nscscc2019_release_v0.01/func_test_v0.01/soft/func/inst/n29_ori.S:13
    1b24:	3c0834e0 	lui	t0,0x34e0
    1b28:	35081280 	ori	t0,t0,0x1280
    1b2c:	3c0334e0 	lui	v1,0x34e0
    1b30:	346333d5 	ori	v1,v1,0x33d5
    1b34:	35023155 	ori	v0,t0,0x3155
    1b38:	00435826 	xor	t3,v0,v1
    1b3c:	340c0001 	li	t4,0x1
    1b40:	116c000f 	beq	t3,t4,1b80 <inst_error>
    1b44:	00000000 	nop
/home/cs/nscscc2019/nscscc2019_release_v0.01/func_test_v0.01/soft/func/inst/n29_ori.S:14
    1b48:	3c082019 	lui	t0,0x2019
    1b4c:	35082340 	ori	t0,t0,0x2340
    1b50:	3c032019 	lui	v1,0x2019
    1b54:	3463eff0 	ori	v1,v1,0xeff0
    1b58:	3502ccf0 	ori	v0,t0,0xccf0
    1b5c:	00435826 	xor	t3,v0,v1
    1b60:	340c0001 	li	t4,0x1
    1b64:	116c0006 	beq	t3,t4,1b80 <inst_error>
    1b68:	00000000 	nop
/home/cs/nscscc2019/nscscc2019_release_v0.01/func_test_v0.01/soft/func/inst/n29_ori.S:313
    1b6c:	02405026 	xor	t2,s2,zero
/home/cs/nscscc2019/nscscc2019_release_v0.01/func_test_v0.01/soft/func/inst/n29_ori.S:314
    1b70:	34090001 	li	t1,0x1
/home/cs/nscscc2019/nscscc2019_release_v0.01/func_test_v0.01/soft/func/inst/n29_ori.S:315
    1b74:	11490002 	beq	t2,t1,1b80 <inst_error>
/home/cs/nscscc2019/nscscc2019_release_v0.01/func_test_v0.01/soft/func/inst/n29_ori.S:317
    1b78:	00000000 	nop
/home/cs/nscscc2019/nscscc2019_release_v0.01/func_test_v0.01/soft/func/inst/n29_ori.S:319
    1b7c:	26730001 	addiu	s3,s3,1

00001b80 <inst_error>:
/home/cs/nscscc2019/nscscc2019_release_v0.01/func_test_v0.01/soft/func/inst/n29_ori.S:323
    1b80:	340a0018 	li	t2,0x18
/home/cs/nscscc2019/nscscc2019_release_v0.01/func_test_v0.01/soft/func/inst/n29_ori.S:324
    1b84:	01504804 	sllv	t1,s0,t2
/home/cs/nscscc2019/nscscc2019_release_v0.01/func_test_v0.01/soft/func/inst/n29_ori.S:326
    1b88:	01334025 	or	t0,t1,s3
/home/cs/nscscc2019/nscscc2019_release_v0.01/func_test_v0.01/soft/func/inst/n29_ori.S:327
    1b8c:	ae280000 	sw	t0,0(s1)
/home/cs/nscscc2019/nscscc2019_release_v0.01/func_test_v0.01/soft/func/inst/n29_ori.S:328
    1b90:	03e00008 	jr	ra
/home/cs/nscscc2019/nscscc2019_release_v0.01/func_test_v0.01/soft/func/inst/n29_ori.S:329
    1b94:	00000000 	nop
	...

00001ba0 <n2_addu_test>:
/home/cs/nscscc2019/nscscc2019_release_v0.01/func_test_v0.01/soft/func/inst/n2_addu.S:7
    1ba0:	26100001 	addiu	s0,s0,1
/home/cs/nscscc2019/nscscc2019_release_v0.01/func_test_v0.01/soft/func/inst/n2_addu.S:8
    1ba4:	24120000 	li	s2,0
/home/cs/nscscc2019/nscscc2019_release_v0.01/func_test_v0.01/soft/func/inst/n2_addu.S:10
    1ba8:	3c081ade 	lui	t0,0x1ade
    1bac:	3508f300 	ori	t0,t0,0xf300
    1bb0:	3c0951dd 	lui	t1,0x51dd
    1bb4:	352958de 	ori	t1,t1,0x58de
    1bb8:	3c036cbc 	lui	v1,0x6cbc
    1bbc:	34634bde 	ori	v1,v1,0x4bde
    1bc0:	01091021 	addu	v0,t0,t1
    1bc4:	00435826 	xor	t3,v0,v1
    1bc8:	340c0001 	li	t4,0x1
    1bcc:	116c0032 	beq	t3,t4,1c98 <inst_error>
    1bd0:	00000000 	nop
/home/cs/nscscc2019/nscscc2019_release_v0.01/func_test_v0.01/soft/func/inst/n2_addu.S:11
    1bd4:	3c089674 	lui	t0,0x9674
    1bd8:	3508ea60 	ori	t0,t0,0xea60
    1bdc:	3c09ab47 	lui	t1,0xab47
    1be0:	35295792 	ori	t1,t1,0x5792
    1be4:	3c0341bc 	lui	v1,0x41bc
    1be8:	346341f2 	ori	v1,v1,0x41f2
    1bec:	01091021 	addu	v0,t0,t1
    1bf0:	00435826 	xor	t3,v0,v1
    1bf4:	340c0001 	li	t4,0x1
    1bf8:	116c0027 	beq	t3,t4,1c98 <inst_error>
    1bfc:	00000000 	nop
/home/cs/nscscc2019/nscscc2019_release_v0.01/func_test_v0.01/soft/func/inst/n2_addu.S:12
    1c00:	3c08b60d 	lui	t0,0xb60d
    1c04:	3508b986 	ori	t0,t0,0xb986
    1c08:	3c092e56 	lui	t1,0x2e56
    1c0c:	3529c81a 	ori	t1,t1,0xc81a
    1c10:	3c03e464 	lui	v1,0xe464
    1c14:	346381a0 	ori	v1,v1,0x81a0
    1c18:	01091021 	addu	v0,t0,t1
    1c1c:	00435826 	xor	t3,v0,v1
    1c20:	340c0001 	li	t4,0x1
    1c24:	116c001c 	beq	t3,t4,1c98 <inst_error>
    1c28:	00000000 	nop
/home/cs/nscscc2019/nscscc2019_release_v0.01/func_test_v0.01/soft/func/inst/n2_addu.S:13
    1c2c:	3c08d55e 	lui	t0,0xd55e
    1c30:	3508dbc0 	ori	t0,t0,0xdbc0
    1c34:	3c0960f5 	lui	t1,0x60f5
    1c38:	3529cb0c 	ori	t1,t1,0xcb0c
    1c3c:	3c033654 	lui	v1,0x3654
    1c40:	3463a6cc 	ori	v1,v1,0xa6cc
    1c44:	01091021 	addu	v0,t0,t1
    1c48:	00435826 	xor	t3,v0,v1
    1c4c:	340c0001 	li	t4,0x1
    1c50:	116c0011 	beq	t3,t4,1c98 <inst_error>
    1c54:	00000000 	nop
/home/cs/nscscc2019/nscscc2019_release_v0.01/func_test_v0.01/soft/func/inst/n2_addu.S:14
    1c58:	3c08a2b8 	lui	t0,0xa2b8
    1c5c:	3508e4e0 	ori	t0,t0,0xe4e0
    1c60:	3c09c6e6 	lui	t1,0xc6e6
    1c64:	35296aa0 	ori	t1,t1,0x6aa0
    1c68:	3c03699f 	lui	v1,0x699f
    1c6c:	34634f80 	ori	v1,v1,0x4f80
    1c70:	01091021 	addu	v0,t0,t1
    1c74:	00435826 	xor	t3,v0,v1
    1c78:	340c0001 	li	t4,0x1
    1c7c:	116c0006 	beq	t3,t4,1c98 <inst_error>
    1c80:	00000000 	nop
/home/cs/nscscc2019/nscscc2019_release_v0.01/func_test_v0.01/soft/func/inst/n2_addu.S:313
    1c84:	02405026 	xor	t2,s2,zero
/home/cs/nscscc2019/nscscc2019_release_v0.01/func_test_v0.01/soft/func/inst/n2_addu.S:314
    1c88:	34090001 	li	t1,0x1
/home/cs/nscscc2019/nscscc2019_release_v0.01/func_test_v0.01/soft/func/inst/n2_addu.S:315
    1c8c:	11490002 	beq	t2,t1,1c98 <inst_error>
/home/cs/nscscc2019/nscscc2019_release_v0.01/func_test_v0.01/soft/func/inst/n2_addu.S:317
    1c90:	00000000 	nop
/home/cs/nscscc2019/nscscc2019_release_v0.01/func_test_v0.01/soft/func/inst/n2_addu.S:319
    1c94:	26730001 	addiu	s3,s3,1

00001c98 <inst_error>:
/home/cs/nscscc2019/nscscc2019_release_v0.01/func_test_v0.01/soft/func/inst/n2_addu.S:323
    1c98:	340a0018 	li	t2,0x18
/home/cs/nscscc2019/nscscc2019_release_v0.01/func_test_v0.01/soft/func/inst/n2_addu.S:324
    1c9c:	01504804 	sllv	t1,s0,t2
/home/cs/nscscc2019/nscscc2019_release_v0.01/func_test_v0.01/soft/func/inst/n2_addu.S:326
    1ca0:	01334025 	or	t0,t1,s3
/home/cs/nscscc2019/nscscc2019_release_v0.01/func_test_v0.01/soft/func/inst/n2_addu.S:327
    1ca4:	ae280000 	sw	t0,0(s1)
/home/cs/nscscc2019/nscscc2019_release_v0.01/func_test_v0.01/soft/func/inst/n2_addu.S:328
    1ca8:	03e00008 	jr	ra
/home/cs/nscscc2019/nscscc2019_release_v0.01/func_test_v0.01/soft/func/inst/n2_addu.S:329
    1cac:	00000000 	nop

00001cb0 <n30_xor_test>:
/home/cs/nscscc2019/nscscc2019_release_v0.01/func_test_v0.01/soft/func/inst/n30_xor.S:7
    1cb0:	26100001 	addiu	s0,s0,1
/home/cs/nscscc2019/nscscc2019_release_v0.01/func_test_v0.01/soft/func/inst/n30_xor.S:8
    1cb4:	24120000 	li	s2,0
/home/cs/nscscc2019/nscscc2019_release_v0.01/func_test_v0.01/soft/func/inst/n30_xor.S:10
    1cb8:	3c081773 	lui	t0,0x1773
    1cbc:	3508df80 	ori	t0,t0,0xdf80
    1cc0:	3c09b5af 	lui	t1,0xb5af
    1cc4:	352951d2 	ori	t1,t1,0x51d2
    1cc8:	3c03a2dc 	lui	v1,0xa2dc
    1ccc:	34638e52 	ori	v1,v1,0x8e52
    1cd0:	01091026 	xor	v0,t0,t1
    1cd4:	00435826 	xor	t3,v0,v1
    1cd8:	340c0001 	li	t4,0x1
    1cdc:	116c0032 	beq	t3,t4,1da8 <inst_error>
    1ce0:	00000000 	nop
/home/cs/nscscc2019/nscscc2019_release_v0.01/func_test_v0.01/soft/func/inst/n30_xor.S:11
    1ce4:	3c08e622 	lui	t0,0xe622
    1ce8:	35083550 	ori	t0,t0,0x3550
    1cec:	3c09909c 	lui	t1,0x909c
    1cf0:	352998da 	ori	t1,t1,0x98da
    1cf4:	3c0376be 	lui	v1,0x76be
    1cf8:	3463ad8a 	ori	v1,v1,0xad8a
    1cfc:	01091026 	xor	v0,t0,t1
    1d00:	00435826 	xor	t3,v0,v1
    1d04:	340c0001 	li	t4,0x1
    1d08:	116c0027 	beq	t3,t4,1da8 <inst_error>
    1d0c:	00000000 	nop
/home/cs/nscscc2019/nscscc2019_release_v0.01/func_test_v0.01/soft/func/inst/n30_xor.S:12
    1d10:	3c08f5c8 	lui	t0,0xf5c8
    1d14:	3508a598 	ori	t0,t0,0xa598
    1d18:	3c0925fd 	lui	t1,0x25fd
    1d1c:	35290240 	ori	t1,t1,0x240
    1d20:	3c03d035 	lui	v1,0xd035
    1d24:	3463a7d8 	ori	v1,v1,0xa7d8
    1d28:	01091026 	xor	v0,t0,t1
    1d2c:	00435826 	xor	t3,v0,v1
    1d30:	340c0001 	li	t4,0x1
    1d34:	116c001c 	beq	t3,t4,1da8 <inst_error>
    1d38:	00000000 	nop
/home/cs/nscscc2019/nscscc2019_release_v0.01/func_test_v0.01/soft/func/inst/n30_xor.S:13
    1d3c:	3c0824b5 	lui	t0,0x24b5
    1d40:	35083f20 	ori	t0,t0,0x3f20
    1d44:	3c0914d3 	lui	t1,0x14d3
    1d48:	3529aae8 	ori	t1,t1,0xaae8
    1d4c:	3c033066 	lui	v1,0x3066
    1d50:	346395c8 	ori	v1,v1,0x95c8
    1d54:	01091026 	xor	v0,t0,t1
    1d58:	00435826 	xor	t3,v0,v1
    1d5c:	340c0001 	li	t4,0x1
    1d60:	116c0011 	beq	t3,t4,1da8 <inst_error>
    1d64:	00000000 	nop
/home/cs/nscscc2019/nscscc2019_release_v0.01/func_test_v0.01/soft/func/inst/n30_xor.S:14
    1d68:	3c085945 	lui	t0,0x5945
    1d6c:	35081f38 	ori	t0,t0,0x1f38
    1d70:	3c09e8aa 	lui	t1,0xe8aa
    1d74:	3529f42b 	ori	t1,t1,0xf42b
    1d78:	3c03b1ef 	lui	v1,0xb1ef
    1d7c:	3463eb13 	ori	v1,v1,0xeb13
    1d80:	01091026 	xor	v0,t0,t1
    1d84:	00435826 	xor	t3,v0,v1
    1d88:	340c0001 	li	t4,0x1
    1d8c:	116c0006 	beq	t3,t4,1da8 <inst_error>
    1d90:	00000000 	nop
/home/cs/nscscc2019/nscscc2019_release_v0.01/func_test_v0.01/soft/func/inst/n30_xor.S:313
    1d94:	02405026 	xor	t2,s2,zero
/home/cs/nscscc2019/nscscc2019_release_v0.01/func_test_v0.01/soft/func/inst/n30_xor.S:314
    1d98:	34090001 	li	t1,0x1
/home/cs/nscscc2019/nscscc2019_release_v0.01/func_test_v0.01/soft/func/inst/n30_xor.S:315
    1d9c:	11490002 	beq	t2,t1,1da8 <inst_error>
/home/cs/nscscc2019/nscscc2019_release_v0.01/func_test_v0.01/soft/func/inst/n30_xor.S:317
    1da0:	00000000 	nop
/home/cs/nscscc2019/nscscc2019_release_v0.01/func_test_v0.01/soft/func/inst/n30_xor.S:319
    1da4:	26730001 	addiu	s3,s3,1

00001da8 <inst_error>:
/home/cs/nscscc2019/nscscc2019_release_v0.01/func_test_v0.01/soft/func/inst/n30_xor.S:323
    1da8:	340a0018 	li	t2,0x18
/home/cs/nscscc2019/nscscc2019_release_v0.01/func_test_v0.01/soft/func/inst/n30_xor.S:324
    1dac:	01504804 	sllv	t1,s0,t2
/home/cs/nscscc2019/nscscc2019_release_v0.01/func_test_v0.01/soft/func/inst/n30_xor.S:326
    1db0:	01334025 	or	t0,t1,s3
/home/cs/nscscc2019/nscscc2019_release_v0.01/func_test_v0.01/soft/func/inst/n30_xor.S:327
    1db4:	ae280000 	sw	t0,0(s1)
/home/cs/nscscc2019/nscscc2019_release_v0.01/func_test_v0.01/soft/func/inst/n30_xor.S:328
    1db8:	03e00008 	jr	ra
/home/cs/nscscc2019/nscscc2019_release_v0.01/func_test_v0.01/soft/func/inst/n30_xor.S:329
    1dbc:	00000000 	nop

00001dc0 <n31_xori_test>:
/home/cs/nscscc2019/nscscc2019_release_v0.01/func_test_v0.01/soft/func/inst/n31_xori.S:7
    1dc0:	26100001 	addiu	s0,s0,1
/home/cs/nscscc2019/nscscc2019_release_v0.01/func_test_v0.01/soft/func/inst/n31_xori.S:8
    1dc4:	24120000 	li	s2,0
/home/cs/nscscc2019/nscscc2019_release_v0.01/func_test_v0.01/soft/func/inst/n31_xori.S:10
    1dc8:	3c084406 	lui	t0,0x4406
    1dcc:	3508a500 	ori	t0,t0,0xa500
    1dd0:	3c034406 	lui	v1,0x4406
    1dd4:	3463b1bf 	ori	v1,v1,0xb1bf
    1dd8:	390214bf 	xori	v0,t0,0x14bf
    1ddc:	14430022 	bne	v0,v1,1e68 <inst_error>
    1de0:	00000000 	nop
/home/cs/nscscc2019/nscscc2019_release_v0.01/func_test_v0.01/soft/func/inst/n31_xori.S:11
    1de4:	3c08b5f5 	lui	t0,0xb5f5
    1de8:	35082460 	ori	t0,t0,0x2460
    1dec:	3c03b5f5 	lui	v1,0xb5f5
    1df0:	34639ede 	ori	v1,v1,0x9ede
    1df4:	3902babe 	xori	v0,t0,0xbabe
    1df8:	1443001b 	bne	v0,v1,1e68 <inst_error>
    1dfc:	00000000 	nop
/home/cs/nscscc2019/nscscc2019_release_v0.01/func_test_v0.01/soft/func/inst/n31_xori.S:12
    1e00:	3c083454 	lui	t0,0x3454
    1e04:	35087fee 	ori	t0,t0,0x7fee
    1e08:	3c033454 	lui	v1,0x3454
    1e0c:	3463e314 	ori	v1,v1,0xe314
    1e10:	39029cfa 	xori	v0,t0,0x9cfa
    1e14:	14430014 	bne	v0,v1,1e68 <inst_error>
    1e18:	00000000 	nop
/home/cs/nscscc2019/nscscc2019_release_v0.01/func_test_v0.01/soft/func/inst/n31_xori.S:13
    1e1c:	3c084d7c 	lui	t0,0x4d7c
    1e20:	35086e70 	ori	t0,t0,0x6e70
    1e24:	3c034d7c 	lui	v1,0x4d7c
    1e28:	34639384 	ori	v1,v1,0x9384
    1e2c:	3902fdf4 	xori	v0,t0,0xfdf4
    1e30:	1443000d 	bne	v0,v1,1e68 <inst_error>
    1e34:	00000000 	nop
/home/cs/nscscc2019/nscscc2019_release_v0.01/func_test_v0.01/soft/func/inst/n31_xori.S:14
    1e38:	3c080f04 	lui	t0,0xf04
    1e3c:	3508a9e8 	ori	t0,t0,0xa9e8
    1e40:	3c030f04 	lui	v1,0xf04
    1e44:	34633af6 	ori	v1,v1,0x3af6
    1e48:	3902931e 	xori	v0,t0,0x931e
    1e4c:	14430006 	bne	v0,v1,1e68 <inst_error>
    1e50:	00000000 	nop
/home/cs/nscscc2019/nscscc2019_release_v0.01/func_test_v0.01/soft/func/inst/n31_xori.S:313
    1e54:	02405026 	xor	t2,s2,zero
/home/cs/nscscc2019/nscscc2019_release_v0.01/func_test_v0.01/soft/func/inst/n31_xori.S:314
    1e58:	34090001 	li	t1,0x1
/home/cs/nscscc2019/nscscc2019_release_v0.01/func_test_v0.01/soft/func/inst/n31_xori.S:315
    1e5c:	11490002 	beq	t2,t1,1e68 <inst_error>
/home/cs/nscscc2019/nscscc2019_release_v0.01/func_test_v0.01/soft/func/inst/n31_xori.S:317
    1e60:	00000000 	nop
/home/cs/nscscc2019/nscscc2019_release_v0.01/func_test_v0.01/soft/func/inst/n31_xori.S:319
    1e64:	26730001 	addiu	s3,s3,1

00001e68 <inst_error>:
/home/cs/nscscc2019/nscscc2019_release_v0.01/func_test_v0.01/soft/func/inst/n31_xori.S:323
    1e68:	340a0018 	li	t2,0x18
/home/cs/nscscc2019/nscscc2019_release_v0.01/func_test_v0.01/soft/func/inst/n31_xori.S:324
    1e6c:	01504804 	sllv	t1,s0,t2
/home/cs/nscscc2019/nscscc2019_release_v0.01/func_test_v0.01/soft/func/inst/n31_xori.S:326
    1e70:	01334025 	or	t0,t1,s3
/home/cs/nscscc2019/nscscc2019_release_v0.01/func_test_v0.01/soft/func/inst/n31_xori.S:327
    1e74:	ae280000 	sw	t0,0(s1)
/home/cs/nscscc2019/nscscc2019_release_v0.01/func_test_v0.01/soft/func/inst/n31_xori.S:328
    1e78:	03e00008 	jr	ra
/home/cs/nscscc2019/nscscc2019_release_v0.01/func_test_v0.01/soft/func/inst/n31_xori.S:329
    1e7c:	00000000 	nop

00001e80 <n32_sllv_test>:
/home/cs/nscscc2019/nscscc2019_release_v0.01/func_test_v0.01/soft/func/inst/n32_sllv.S:7
    1e80:	26100001 	addiu	s0,s0,1
/home/cs/nscscc2019/nscscc2019_release_v0.01/func_test_v0.01/soft/func/inst/n32_sllv.S:8
    1e84:	24120000 	li	s2,0
/home/cs/nscscc2019/nscscc2019_release_v0.01/func_test_v0.01/soft/func/inst/n32_sllv.S:10
    1e88:	3c0879db 	lui	t0,0x79db
    1e8c:	3508db34 	ori	t0,t0,0xdb34
    1e90:	24090007 	li	t1,7
    1e94:	3c03eded 	lui	v1,0xeded
    1e98:	34639a00 	ori	v1,v1,0x9a00
    1e9c:	01281004 	sllv	v0,t0,t1
    1ea0:	00435826 	xor	t3,v0,v1
    1ea4:	340c0001 	li	t4,0x1
    1ea8:	116c002b 	beq	t3,t4,1f58 <inst_error>
    1eac:	00000000 	nop
/home/cs/nscscc2019/nscscc2019_release_v0.01/func_test_v0.01/soft/func/inst/n32_sllv.S:11
    1eb0:	3c08a903 	lui	t0,0xa903
    1eb4:	3508fa10 	ori	t0,t0,0xfa10
    1eb8:	2409001d 	li	t1,29
    1ebc:	24030000 	li	v1,0
    1ec0:	01281004 	sllv	v0,t0,t1
    1ec4:	00435826 	xor	t3,v0,v1
    1ec8:	340c0001 	li	t4,0x1
    1ecc:	116c0022 	beq	t3,t4,1f58 <inst_error>
    1ed0:	00000000 	nop
/home/cs/nscscc2019/nscscc2019_release_v0.01/func_test_v0.01/soft/func/inst/n32_sllv.S:12
    1ed4:	3c086bd7 	lui	t0,0x6bd7
    1ed8:	350839d8 	ori	t0,t0,0x39d8
    1edc:	2409000d 	li	t1,13
    1ee0:	3c03e73b 	lui	v1,0xe73b
    1ee4:	01281004 	sllv	v0,t0,t1
    1ee8:	00435826 	xor	t3,v0,v1
    1eec:	340c0001 	li	t4,0x1
    1ef0:	116c0019 	beq	t3,t4,1f58 <inst_error>
    1ef4:	00000000 	nop
/home/cs/nscscc2019/nscscc2019_release_v0.01/func_test_v0.01/soft/func/inst/n32_sllv.S:13
    1ef8:	3c08273a 	lui	t0,0x273a
    1efc:	3508784a 	ori	t0,t0,0x784a
    1f00:	2409000a 	li	t1,10
    1f04:	3c03e9e1 	lui	v1,0xe9e1
    1f08:	34632800 	ori	v1,v1,0x2800
    1f0c:	01281004 	sllv	v0,t0,t1
    1f10:	00435826 	xor	t3,v0,v1
    1f14:	340c0001 	li	t4,0x1
    1f18:	116c000f 	beq	t3,t4,1f58 <inst_error>
    1f1c:	00000000 	nop
/home/cs/nscscc2019/nscscc2019_release_v0.01/func_test_v0.01/soft/func/inst/n32_sllv.S:14
    1f20:	3c083405 	lui	t0,0x3405
    1f24:	35088000 	ori	t0,t0,0x8000
    1f28:	24090009 	li	t1,9
    1f2c:	3c030b00 	lui	v1,0xb00
    1f30:	01281004 	sllv	v0,t0,t1
    1f34:	00435826 	xor	t3,v0,v1
    1f38:	340c0001 	li	t4,0x1
    1f3c:	116c0006 	beq	t3,t4,1f58 <inst_error>
    1f40:	00000000 	nop
/home/cs/nscscc2019/nscscc2019_release_v0.01/func_test_v0.01/soft/func/inst/n32_sllv.S:313
    1f44:	02405026 	xor	t2,s2,zero
/home/cs/nscscc2019/nscscc2019_release_v0.01/func_test_v0.01/soft/func/inst/n32_sllv.S:314
    1f48:	34090001 	li	t1,0x1
/home/cs/nscscc2019/nscscc2019_release_v0.01/func_test_v0.01/soft/func/inst/n32_sllv.S:315
    1f4c:	11490002 	beq	t2,t1,1f58 <inst_error>
/home/cs/nscscc2019/nscscc2019_release_v0.01/func_test_v0.01/soft/func/inst/n32_sllv.S:317
    1f50:	00000000 	nop
/home/cs/nscscc2019/nscscc2019_release_v0.01/func_test_v0.01/soft/func/inst/n32_sllv.S:319
    1f54:	26730001 	addiu	s3,s3,1

00001f58 <inst_error>:
/home/cs/nscscc2019/nscscc2019_release_v0.01/func_test_v0.01/soft/func/inst/n32_sllv.S:323
    1f58:	340a0018 	li	t2,0x18
/home/cs/nscscc2019/nscscc2019_release_v0.01/func_test_v0.01/soft/func/inst/n32_sllv.S:324
    1f5c:	01504804 	sllv	t1,s0,t2
/home/cs/nscscc2019/nscscc2019_release_v0.01/func_test_v0.01/soft/func/inst/n32_sllv.S:326
    1f60:	01334025 	or	t0,t1,s3
/home/cs/nscscc2019/nscscc2019_release_v0.01/func_test_v0.01/soft/func/inst/n32_sllv.S:327
    1f64:	ae280000 	sw	t0,0(s1)
/home/cs/nscscc2019/nscscc2019_release_v0.01/func_test_v0.01/soft/func/inst/n32_sllv.S:328
    1f68:	03e00008 	jr	ra
/home/cs/nscscc2019/nscscc2019_release_v0.01/func_test_v0.01/soft/func/inst/n32_sllv.S:329
    1f6c:	00000000 	nop

00001f70 <n34_srav_test>:
/home/cs/nscscc2019/nscscc2019_release_v0.01/func_test_v0.01/soft/func/inst/n34_srav.S:7
    1f70:	26100001 	addiu	s0,s0,1
/home/cs/nscscc2019/nscscc2019_release_v0.01/func_test_v0.01/soft/func/inst/n34_srav.S:8
    1f74:	24120000 	li	s2,0
/home/cs/nscscc2019/nscscc2019_release_v0.01/func_test_v0.01/soft/func/inst/n34_srav.S:10
    1f78:	3c083e59 	lui	t0,0x3e59
    1f7c:	35084300 	ori	t0,t0,0x4300
    1f80:	24090003 	li	t1,3
    1f84:	3c0307cb 	lui	v1,0x7cb
    1f88:	34632860 	ori	v1,v1,0x2860
    1f8c:	01281007 	srav	v0,t0,t1
    1f90:	00435826 	xor	t3,v0,v1
    1f94:	340c0001 	li	t4,0x1
    1f98:	116c002b 	beq	t3,t4,2048 <inst_error>
    1f9c:	00000000 	nop
/home/cs/nscscc2019/nscscc2019_release_v0.01/func_test_v0.01/soft/func/inst/n34_srav.S:11
    1fa0:	3c08171e 	lui	t0,0x171e
    1fa4:	35080116 	ori	t0,t0,0x116
    1fa8:	24090004 	li	t1,4
    1fac:	3c030171 	lui	v1,0x171
    1fb0:	3463e011 	ori	v1,v1,0xe011
    1fb4:	01281007 	srav	v0,t0,t1
    1fb8:	00435826 	xor	t3,v0,v1
    1fbc:	340c0001 	li	t4,0x1
    1fc0:	116c0021 	beq	t3,t4,2048 <inst_error>
    1fc4:	00000000 	nop
/home/cs/nscscc2019/nscscc2019_release_v0.01/func_test_v0.01/soft/func/inst/n34_srav.S:12
    1fc8:	3c08fb98 	lui	t0,0xfb98
    1fcc:	3508a1c4 	ori	t0,t0,0xa1c4
    1fd0:	24090017 	li	t1,23
    1fd4:	2403fff7 	li	v1,-9
    1fd8:	01281007 	srav	v0,t0,t1
    1fdc:	00435826 	xor	t3,v0,v1
    1fe0:	340c0001 	li	t4,0x1
    1fe4:	116c0018 	beq	t3,t4,2048 <inst_error>
    1fe8:	00000000 	nop
/home/cs/nscscc2019/nscscc2019_release_v0.01/func_test_v0.01/soft/func/inst/n34_srav.S:13
    1fec:	3c086ff8 	lui	t0,0x6ff8
    1ff0:	3508fac0 	ori	t0,t0,0xfac0
    1ff4:	24090019 	li	t1,25
    1ff8:	24030037 	li	v1,55
    1ffc:	01281007 	srav	v0,t0,t1
    2000:	00435826 	xor	t3,v0,v1
    2004:	340c0001 	li	t4,0x1
    2008:	116c000f 	beq	t3,t4,2048 <inst_error>
    200c:	00000000 	nop
/home/cs/nscscc2019/nscscc2019_release_v0.01/func_test_v0.01/soft/func/inst/n34_srav.S:14
    2010:	3c0809d9 	lui	t0,0x9d9
    2014:	35089740 	ori	t0,t0,0x9740
    2018:	24090015 	li	t1,21
    201c:	2403004e 	li	v1,78
    2020:	01281007 	srav	v0,t0,t1
    2024:	00435826 	xor	t3,v0,v1
    2028:	340c0001 	li	t4,0x1
    202c:	116c0006 	beq	t3,t4,2048 <inst_error>
    2030:	00000000 	nop
/home/cs/nscscc2019/nscscc2019_release_v0.01/func_test_v0.01/soft/func/inst/n34_srav.S:313
    2034:	02405026 	xor	t2,s2,zero
/home/cs/nscscc2019/nscscc2019_release_v0.01/func_test_v0.01/soft/func/inst/n34_srav.S:314
    2038:	34090001 	li	t1,0x1
/home/cs/nscscc2019/nscscc2019_release_v0.01/func_test_v0.01/soft/func/inst/n34_srav.S:315
    203c:	11490002 	beq	t2,t1,2048 <inst_error>
/home/cs/nscscc2019/nscscc2019_release_v0.01/func_test_v0.01/soft/func/inst/n34_srav.S:317
    2040:	00000000 	nop
/home/cs/nscscc2019/nscscc2019_release_v0.01/func_test_v0.01/soft/func/inst/n34_srav.S:319
    2044:	26730001 	addiu	s3,s3,1

00002048 <inst_error>:
/home/cs/nscscc2019/nscscc2019_release_v0.01/func_test_v0.01/soft/func/inst/n34_srav.S:323
    2048:	340a0018 	li	t2,0x18
/home/cs/nscscc2019/nscscc2019_release_v0.01/func_test_v0.01/soft/func/inst/n34_srav.S:324
    204c:	01504804 	sllv	t1,s0,t2
/home/cs/nscscc2019/nscscc2019_release_v0.01/func_test_v0.01/soft/func/inst/n34_srav.S:326
    2050:	01334025 	or	t0,t1,s3
/home/cs/nscscc2019/nscscc2019_release_v0.01/func_test_v0.01/soft/func/inst/n34_srav.S:327
    2054:	ae280000 	sw	t0,0(s1)
/home/cs/nscscc2019/nscscc2019_release_v0.01/func_test_v0.01/soft/func/inst/n34_srav.S:328
    2058:	03e00008 	jr	ra
/home/cs/nscscc2019/nscscc2019_release_v0.01/func_test_v0.01/soft/func/inst/n34_srav.S:329
    205c:	00000000 	nop

00002060 <n36_srlv_test>:
/home/cs/nscscc2019/nscscc2019_release_v0.01/func_test_v0.01/soft/func/inst/n36_srlv.S:7
    2060:	26100001 	addiu	s0,s0,1
/home/cs/nscscc2019/nscscc2019_release_v0.01/func_test_v0.01/soft/func/inst/n36_srlv.S:8
    2064:	24120000 	li	s2,0
/home/cs/nscscc2019/nscscc2019_release_v0.01/func_test_v0.01/soft/func/inst/n36_srlv.S:10
    2068:	3c081f8f 	lui	t0,0x1f8f
    206c:	35086000 	ori	t0,t0,0x6000
    2070:	2409001c 	li	t1,28
    2074:	24030001 	li	v1,1
    2078:	01281006 	srlv	v0,t0,t1
    207c:	00435826 	xor	t3,v0,v1
    2080:	340c0001 	li	t4,0x1
    2084:	116c002d 	beq	t3,t4,213c <inst_error>
    2088:	00000000 	nop
/home/cs/nscscc2019/nscscc2019_release_v0.01/func_test_v0.01/soft/func/inst/n36_srlv.S:11
    208c:	3c08e51f 	lui	t0,0xe51f
    2090:	35086e9c 	ori	t0,t0,0x6e9c
    2094:	24090002 	li	t1,2
    2098:	3c033947 	lui	v1,0x3947
    209c:	3463dba7 	ori	v1,v1,0xdba7
    20a0:	01281006 	srlv	v0,t0,t1
    20a4:	00435826 	xor	t3,v0,v1
    20a8:	340c0001 	li	t4,0x1
    20ac:	116c0023 	beq	t3,t4,213c <inst_error>
    20b0:	00000000 	nop
/home/cs/nscscc2019/nscscc2019_release_v0.01/func_test_v0.01/soft/func/inst/n36_srlv.S:12
    20b4:	3c08055d 	lui	t0,0x55d
    20b8:	3508f7e0 	ori	t0,t0,0xf7e0
    20bc:	24090008 	li	t1,8
    20c0:	3c030005 	lui	v1,0x5
    20c4:	34635df7 	ori	v1,v1,0x5df7
    20c8:	01281006 	srlv	v0,t0,t1
    20cc:	00435826 	xor	t3,v0,v1
    20d0:	340c0001 	li	t4,0x1
    20d4:	116c0019 	beq	t3,t4,213c <inst_error>
    20d8:	00000000 	nop
/home/cs/nscscc2019/nscscc2019_release_v0.01/func_test_v0.01/soft/func/inst/n36_srlv.S:13
    20dc:	3c08a821 	lui	t0,0xa821
    20e0:	3508b3e6 	ori	t0,t0,0xb3e6
    20e4:	24090019 	li	t1,25
    20e8:	24030054 	li	v1,84
    20ec:	01281006 	srlv	v0,t0,t1
    20f0:	00435826 	xor	t3,v0,v1
    20f4:	340c0001 	li	t4,0x1
    20f8:	116c0010 	beq	t3,t4,213c <inst_error>
    20fc:	00000000 	nop
/home/cs/nscscc2019/nscscc2019_release_v0.01/func_test_v0.01/soft/func/inst/n36_srlv.S:14
    2100:	3c08f333 	lui	t0,0xf333
    2104:	35080c74 	ori	t0,t0,0xc74
    2108:	2409000a 	li	t1,10
    210c:	3c03003c 	lui	v1,0x3c
    2110:	3463ccc3 	ori	v1,v1,0xccc3
    2114:	01281006 	srlv	v0,t0,t1
    2118:	00435826 	xor	t3,v0,v1
    211c:	340c0001 	li	t4,0x1
    2120:	116c0006 	beq	t3,t4,213c <inst_error>
    2124:	00000000 	nop
/home/cs/nscscc2019/nscscc2019_release_v0.01/func_test_v0.01/soft/func/inst/n36_srlv.S:313
    2128:	02405026 	xor	t2,s2,zero
/home/cs/nscscc2019/nscscc2019_release_v0.01/func_test_v0.01/soft/func/inst/n36_srlv.S:314
    212c:	34090001 	li	t1,0x1
/home/cs/nscscc2019/nscscc2019_release_v0.01/func_test_v0.01/soft/func/inst/n36_srlv.S:315
    2130:	11490002 	beq	t2,t1,213c <inst_error>
/home/cs/nscscc2019/nscscc2019_release_v0.01/func_test_v0.01/soft/func/inst/n36_srlv.S:317
    2134:	00000000 	nop
/home/cs/nscscc2019/nscscc2019_release_v0.01/func_test_v0.01/soft/func/inst/n36_srlv.S:319
    2138:	26730001 	addiu	s3,s3,1

0000213c <inst_error>:
/home/cs/nscscc2019/nscscc2019_release_v0.01/func_test_v0.01/soft/func/inst/n36_srlv.S:323
    213c:	340a0018 	li	t2,0x18
/home/cs/nscscc2019/nscscc2019_release_v0.01/func_test_v0.01/soft/func/inst/n36_srlv.S:324
    2140:	01504804 	sllv	t1,s0,t2
/home/cs/nscscc2019/nscscc2019_release_v0.01/func_test_v0.01/soft/func/inst/n36_srlv.S:326
    2144:	01334025 	or	t0,t1,s3
/home/cs/nscscc2019/nscscc2019_release_v0.01/func_test_v0.01/soft/func/inst/n36_srlv.S:327
    2148:	ae280000 	sw	t0,0(s1)
/home/cs/nscscc2019/nscscc2019_release_v0.01/func_test_v0.01/soft/func/inst/n36_srlv.S:328
    214c:	03e00008 	jr	ra
/home/cs/nscscc2019/nscscc2019_release_v0.01/func_test_v0.01/soft/func/inst/n36_srlv.S:329
    2150:	00000000 	nop
	...

00002160 <n3_addiu_test>:
/home/cs/nscscc2019/nscscc2019_release_v0.01/func_test_v0.01/soft/func/inst/n3_addiu.S:7
    2160:	26100001 	addiu	s0,s0,1
/home/cs/nscscc2019/nscscc2019_release_v0.01/func_test_v0.01/soft/func/inst/n3_addiu.S:8
    2164:	24120000 	li	s2,0
/home/cs/nscscc2019/nscscc2019_release_v0.01/func_test_v0.01/soft/func/inst/n3_addiu.S:10
    2168:	3c08fb26 	lui	t0,0xfb26
    216c:	35083d10 	ori	t0,t0,0x3d10
    2170:	3c03fb26 	lui	v1,0xfb26
    2174:	346329a6 	ori	v1,v1,0x29a6
    2178:	2502ec96 	addiu	v0,t0,-4970
    217c:	00435826 	xor	t3,v0,v1
    2180:	340c0001 	li	t4,0x1
    2184:	116c002a 	beq	t3,t4,2230 <inst_error>
    2188:	00000000 	nop
/home/cs/nscscc2019/nscscc2019_release_v0.01/func_test_v0.01/soft/func/inst/n3_addiu.S:11
    218c:	3c087ec1 	lui	t0,0x7ec1
    2190:	35080538 	ori	t0,t0,0x538
    2194:	3c037ec1 	lui	v1,0x7ec1
    2198:	34630ece 	ori	v1,v1,0xece
    219c:	25020996 	addiu	v0,t0,2454
    21a0:	00435826 	xor	t3,v0,v1
    21a4:	340c0001 	li	t4,0x1
    21a8:	116c0021 	beq	t3,t4,2230 <inst_error>
    21ac:	00000000 	nop
/home/cs/nscscc2019/nscscc2019_release_v0.01/func_test_v0.01/soft/func/inst/n3_addiu.S:12
    21b0:	3c080e50 	lui	t0,0xe50
    21b4:	35085a00 	ori	t0,t0,0x5a00
    21b8:	3c030e50 	lui	v1,0xe50
    21bc:	34631118 	ori	v1,v1,0x1118
    21c0:	2502b718 	addiu	v0,t0,-18664
    21c4:	00435826 	xor	t3,v0,v1
    21c8:	340c0001 	li	t4,0x1
    21cc:	116c0018 	beq	t3,t4,2230 <inst_error>
    21d0:	00000000 	nop
/home/cs/nscscc2019/nscscc2019_release_v0.01/func_test_v0.01/soft/func/inst/n3_addiu.S:13
    21d4:	3c08a522 	lui	t0,0xa522
    21d8:	3508b9d7 	ori	t0,t0,0xb9d7
    21dc:	3c03a522 	lui	v1,0xa522
    21e0:	3463815b 	ori	v1,v1,0x815b
    21e4:	2502c784 	addiu	v0,t0,-14460
    21e8:	00435826 	xor	t3,v0,v1
    21ec:	340c0001 	li	t4,0x1
    21f0:	116c000f 	beq	t3,t4,2230 <inst_error>
    21f4:	00000000 	nop
/home/cs/nscscc2019/nscscc2019_release_v0.01/func_test_v0.01/soft/func/inst/n3_addiu.S:14
    21f8:	3c089b45 	lui	t0,0x9b45
    21fc:	3508d7c0 	ori	t0,t0,0xd7c0
    2200:	3c039b45 	lui	v1,0x9b45
    2204:	34638e92 	ori	v1,v1,0x8e92
    2208:	2502b6d2 	addiu	v0,t0,-18734
    220c:	00435826 	xor	t3,v0,v1
    2210:	340c0001 	li	t4,0x1
    2214:	116c0006 	beq	t3,t4,2230 <inst_error>
    2218:	00000000 	nop
/home/cs/nscscc2019/nscscc2019_release_v0.01/func_test_v0.01/soft/func/inst/n3_addiu.S:135
    221c:	02405026 	xor	t2,s2,zero
/home/cs/nscscc2019/nscscc2019_release_v0.01/func_test_v0.01/soft/func/inst/n3_addiu.S:136
    2220:	34090001 	li	t1,0x1
/home/cs/nscscc2019/nscscc2019_release_v0.01/func_test_v0.01/soft/func/inst/n3_addiu.S:137
    2224:	11490002 	beq	t2,t1,2230 <inst_error>
/home/cs/nscscc2019/nscscc2019_release_v0.01/func_test_v0.01/soft/func/inst/n3_addiu.S:139
    2228:	00000000 	nop
/home/cs/nscscc2019/nscscc2019_release_v0.01/func_test_v0.01/soft/func/inst/n3_addiu.S:141
    222c:	26730001 	addiu	s3,s3,1

00002230 <inst_error>:
/home/cs/nscscc2019/nscscc2019_release_v0.01/func_test_v0.01/soft/func/inst/n3_addiu.S:145
    2230:	340a0018 	li	t2,0x18
/home/cs/nscscc2019/nscscc2019_release_v0.01/func_test_v0.01/soft/func/inst/n3_addiu.S:146
    2234:	01504804 	sllv	t1,s0,t2
/home/cs/nscscc2019/nscscc2019_release_v0.01/func_test_v0.01/soft/func/inst/n3_addiu.S:148
    2238:	01334025 	or	t0,t1,s3
/home/cs/nscscc2019/nscscc2019_release_v0.01/func_test_v0.01/soft/func/inst/n3_addiu.S:149
    223c:	ae280000 	sw	t0,0(s1)
/home/cs/nscscc2019/nscscc2019_release_v0.01/func_test_v0.01/soft/func/inst/n3_addiu.S:150
    2240:	03e00008 	jr	ra
/home/cs/nscscc2019/nscscc2019_release_v0.01/func_test_v0.01/soft/func/inst/n3_addiu.S:151
    2244:	00000000 	nop
	...

00002250 <n4_beq_test>:
/home/cs/nscscc2019/nscscc2019_release_v0.01/func_test_v0.01/soft/func/inst/n4_beq.S:7
    2250:	26100001 	addiu	s0,s0,1
/home/cs/nscscc2019/nscscc2019_release_v0.01/func_test_v0.01/soft/func/inst/n4_beq.S:8
    2254:	24120000 	li	s2,0
/home/cs/nscscc2019/nscscc2019_release_v0.01/func_test_v0.01/soft/func/inst/n4_beq.S:10
    2258:	3c020000 	lui	v0,0x0
    225c:	3c030000 	lui	v1,0x0
    2260:	10000008 	b	2284 <n4_beq_test+0x34>
    2264:	00000000 	nop
    2268:	3c020fb1 	lui	v0,0xfb1
    226c:	34426a80 	ori	v0,v0,0x6a80
    2270:	1128000d 	beq	t1,t0,22a8 <n4_beq_test+0x58>
    2274:	00000000 	nop
    2278:	1000000d 	b	22b0 <n4_beq_test+0x60>
    227c:	00000000 	nop
    2280:	00000000 	nop
    2284:	3c085291 	lui	t0,0x5291
    2288:	35089078 	ori	t0,t0,0x9078
    228c:	3c098146 	lui	t1,0x8146
    2290:	35298400 	ori	t1,t1,0x8400
    2294:	1109fff4 	beq	t0,t1,2268 <n4_beq_test+0x18>
    2298:	00000000 	nop
    229c:	10000004 	b	22b0 <n4_beq_test+0x60>
    22a0:	00000000 	nop
    22a4:	00000000 	nop
    22a8:	3c03df22 	lui	v1,0xdf22
    22ac:	34635ddc 	ori	v1,v1,0x5ddc
    22b0:	24150000 	li	s5,0
    22b4:	24160000 	li	s6,0
    22b8:	00555826 	xor	t3,v0,s5
    22bc:	340c0001 	li	t4,0x1
    22c0:	116c008a 	beq	t3,t4,24ec <inst_error>
    22c4:	00000000 	nop
    22c8:	00765826 	xor	t3,v1,s6
    22cc:	340c0001 	li	t4,0x1
    22d0:	116c0086 	beq	t3,t4,24ec <inst_error>
    22d4:	00000000 	nop
/home/cs/nscscc2019/nscscc2019_release_v0.01/func_test_v0.01/soft/func/inst/n4_beq.S:11
    22d8:	3c020000 	lui	v0,0x0
    22dc:	3c030000 	lui	v1,0x0
    22e0:	10000008 	b	2304 <n4_beq_test+0xb4>
    22e4:	00000000 	nop
    22e8:	3c022fda 	lui	v0,0x2fda
    22ec:	3442c790 	ori	v0,v0,0xc790
    22f0:	1128000d 	beq	t1,t0,2328 <n4_beq_test+0xd8>
    22f4:	00000000 	nop
    22f8:	1000000d 	b	2330 <n4_beq_test+0xe0>
    22fc:	00000000 	nop
    2300:	00000000 	nop
    2304:	3c0890db 	lui	t0,0x90db
    2308:	350814d8 	ori	t0,t0,0x14d8
    230c:	3c09a81a 	lui	t1,0xa81a
    2310:	35297400 	ori	t1,t1,0x7400
    2314:	1109fff4 	beq	t0,t1,22e8 <n4_beq_test+0x98>
    2318:	00000000 	nop
    231c:	10000004 	b	2330 <n4_beq_test+0xe0>
    2320:	00000000 	nop
    2324:	00000000 	nop
    2328:	3c03e4a2 	lui	v1,0xe4a2
    232c:	346302d3 	ori	v1,v1,0x2d3
    2330:	24150000 	li	s5,0
    2334:	24160000 	li	s6,0
    2338:	00555826 	xor	t3,v0,s5
    233c:	340c0001 	li	t4,0x1
    2340:	116c006a 	beq	t3,t4,24ec <inst_error>
    2344:	00000000 	nop
    2348:	00765826 	xor	t3,v1,s6
    234c:	340c0001 	li	t4,0x1
    2350:	116c0066 	beq	t3,t4,24ec <inst_error>
    2354:	00000000 	nop
/home/cs/nscscc2019/nscscc2019_release_v0.01/func_test_v0.01/soft/func/inst/n4_beq.S:12
    2358:	3c020000 	lui	v0,0x0
    235c:	3c030000 	lui	v1,0x0
    2360:	10000008 	b	2384 <n4_beq_test+0x134>
    2364:	00000000 	nop
    2368:	3c02c64a 	lui	v0,0xc64a
    236c:	3442c344 	ori	v0,v0,0xc344
    2370:	1128000d 	beq	t1,t0,23a8 <n4_beq_test+0x158>
    2374:	00000000 	nop
    2378:	1000000d 	b	23b0 <n4_beq_test+0x160>
    237c:	00000000 	nop
    2380:	00000000 	nop
    2384:	3c08bca1 	lui	t0,0xbca1
    2388:	3508eea8 	ori	t0,t0,0xeea8
    238c:	3c09a4ac 	lui	t1,0xa4ac
    2390:	352924ae 	ori	t1,t1,0x24ae
    2394:	1109fff4 	beq	t0,t1,2368 <n4_beq_test+0x118>
    2398:	00000000 	nop
    239c:	10000004 	b	23b0 <n4_beq_test+0x160>
    23a0:	00000000 	nop
    23a4:	00000000 	nop
    23a8:	3c03c38e 	lui	v1,0xc38e
    23ac:	3463d9a0 	ori	v1,v1,0xd9a0
    23b0:	24150000 	li	s5,0
    23b4:	24160000 	li	s6,0
    23b8:	00555826 	xor	t3,v0,s5
    23bc:	340c0001 	li	t4,0x1
    23c0:	116c004a 	beq	t3,t4,24ec <inst_error>
    23c4:	00000000 	nop
    23c8:	00765826 	xor	t3,v1,s6
    23cc:	340c0001 	li	t4,0x1
    23d0:	116c0046 	beq	t3,t4,24ec <inst_error>
    23d4:	00000000 	nop
/home/cs/nscscc2019/nscscc2019_release_v0.01/func_test_v0.01/soft/func/inst/n4_beq.S:13
    23d8:	3c020000 	lui	v0,0x0
    23dc:	3c030000 	lui	v1,0x0
    23e0:	10000008 	b	2404 <n4_beq_test+0x1b4>
    23e4:	00000000 	nop
    23e8:	3c02523b 	lui	v0,0x523b
    23ec:	344285b0 	ori	v0,v0,0x85b0
    23f0:	1128000d 	beq	t1,t0,2428 <n4_beq_test+0x1d8>
    23f4:	00000000 	nop
    23f8:	1000000d 	b	2430 <n4_beq_test+0x1e0>
    23fc:	00000000 	nop
    2400:	00000000 	nop
    2404:	3c08c782 	lui	t0,0xc782
    2408:	35080fa8 	ori	t0,t0,0xfa8
    240c:	3c0971f9 	lui	t1,0x71f9
    2410:	3529dbb0 	ori	t1,t1,0xdbb0
    2414:	1109fff4 	beq	t0,t1,23e8 <n4_beq_test+0x198>
    2418:	00000000 	nop
    241c:	10000004 	b	2430 <n4_beq_test+0x1e0>
    2420:	00000000 	nop
    2424:	00000000 	nop
    2428:	3c03cb7d 	lui	v1,0xcb7d
    242c:	3463bd40 	ori	v1,v1,0xbd40
    2430:	24150000 	li	s5,0
    2434:	24160000 	li	s6,0
    2438:	00555826 	xor	t3,v0,s5
    243c:	340c0001 	li	t4,0x1
    2440:	116c002a 	beq	t3,t4,24ec <inst_error>
    2444:	00000000 	nop
    2448:	00765826 	xor	t3,v1,s6
    244c:	340c0001 	li	t4,0x1
    2450:	116c0026 	beq	t3,t4,24ec <inst_error>
    2454:	00000000 	nop
/home/cs/nscscc2019/nscscc2019_release_v0.01/func_test_v0.01/soft/func/inst/n4_beq.S:14
    2458:	3c020000 	lui	v0,0x0
    245c:	3c030000 	lui	v1,0x0
    2460:	10000008 	b	2484 <n4_beq_test+0x234>
    2464:	00000000 	nop
    2468:	3c022308 	lui	v0,0x2308
    246c:	3442a218 	ori	v0,v0,0xa218
    2470:	1128000d 	beq	t1,t0,24a8 <n4_beq_test+0x258>
    2474:	00000000 	nop
    2478:	1000000d 	b	24b0 <n4_beq_test+0x260>
    247c:	00000000 	nop
    2480:	00000000 	nop
    2484:	3c0865a8 	lui	t0,0x65a8
    2488:	3508a904 	ori	t0,t0,0xa904
    248c:	3c09042a 	lui	t1,0x42a
    2490:	35297ac0 	ori	t1,t1,0x7ac0
    2494:	1109fff4 	beq	t0,t1,2468 <n4_beq_test+0x218>
    2498:	00000000 	nop
    249c:	10000004 	b	24b0 <n4_beq_test+0x260>
    24a0:	00000000 	nop
    24a4:	00000000 	nop
    24a8:	3c03602b 	lui	v1,0x602b
    24ac:	3463df60 	ori	v1,v1,0xdf60
    24b0:	24150000 	li	s5,0
    24b4:	24160000 	li	s6,0
    24b8:	00555826 	xor	t3,v0,s5
    24bc:	340c0001 	li	t4,0x1
    24c0:	116c000a 	beq	t3,t4,24ec <inst_error>
    24c4:	00000000 	nop
    24c8:	00765826 	xor	t3,v1,s6
    24cc:	340c0001 	li	t4,0x1
    24d0:	116c0006 	beq	t3,t4,24ec <inst_error>
    24d4:	00000000 	nop
/home/cs/nscscc2019/nscscc2019_release_v0.01/func_test_v0.01/soft/func/inst/n4_beq.S:116
    24d8:	02405026 	xor	t2,s2,zero
/home/cs/nscscc2019/nscscc2019_release_v0.01/func_test_v0.01/soft/func/inst/n4_beq.S:117
    24dc:	34090001 	li	t1,0x1
/home/cs/nscscc2019/nscscc2019_release_v0.01/func_test_v0.01/soft/func/inst/n4_beq.S:118
    24e0:	11490002 	beq	t2,t1,24ec <inst_error>
/home/cs/nscscc2019/nscscc2019_release_v0.01/func_test_v0.01/soft/func/inst/n4_beq.S:120
    24e4:	00000000 	nop
/home/cs/nscscc2019/nscscc2019_release_v0.01/func_test_v0.01/soft/func/inst/n4_beq.S:122
    24e8:	26730001 	addiu	s3,s3,1

000024ec <inst_error>:
/home/cs/nscscc2019/nscscc2019_release_v0.01/func_test_v0.01/soft/func/inst/n4_beq.S:126
    24ec:	340a0018 	li	t2,0x18
/home/cs/nscscc2019/nscscc2019_release_v0.01/func_test_v0.01/soft/func/inst/n4_beq.S:127
    24f0:	01504804 	sllv	t1,s0,t2
/home/cs/nscscc2019/nscscc2019_release_v0.01/func_test_v0.01/soft/func/inst/n4_beq.S:129
    24f4:	01334025 	or	t0,t1,s3
/home/cs/nscscc2019/nscscc2019_release_v0.01/func_test_v0.01/soft/func/inst/n4_beq.S:130
    24f8:	ae280000 	sw	t0,0(s1)
/home/cs/nscscc2019/nscscc2019_release_v0.01/func_test_v0.01/soft/func/inst/n4_beq.S:131
    24fc:	03e00008 	jr	ra
/home/cs/nscscc2019/nscscc2019_release_v0.01/func_test_v0.01/soft/func/inst/n4_beq.S:132
    2500:	00000000 	nop
	...

00002510 <n6_lw_test>:
/home/cs/nscscc2019/nscscc2019_release_v0.01/func_test_v0.01/soft/func/inst/n6_lw.S:7
    2510:	26100001 	addiu	s0,s0,1
/home/cs/nscscc2019/nscscc2019_release_v0.01/func_test_v0.01/soft/func/inst/n6_lw.S:8
    2514:	24120000 	li	s2,0
/home/cs/nscscc2019/nscscc2019_release_v0.01/func_test_v0.01/soft/func/inst/n6_lw.S:10
    2518:	3c09c822 	lui	t1,0xc822
    251c:	3529c7e8 	ori	t1,t1,0xc7e8
    2520:	3c08800d 	lui	t0,0x800d
    2524:	350834c0 	ori	t0,t0,0x34c0
    2528:	3c03c822 	lui	v1,0xc822
    252c:	3463c7e8 	ori	v1,v1,0xc7e8
    2530:	ad0966a8 	sw	t1,26280(t0)
    2534:	25040004 	addiu	a0,t0,4
    2538:	2505fff8 	addiu	a1,t0,-8
    253c:	ac8466a8 	sw	a0,26280(a0)
    2540:	aca566a8 	sw	a1,26280(a1)
    2544:	8d0266a8 	lw	v0,26280(t0)
    2548:	8c8666a8 	lw	a2,26280(a0)
    254c:	8ca466a8 	lw	a0,26280(a1)
    2550:	8ca666a8 	lw	a2,26280(a1)
    2554:	00435826 	xor	t3,v0,v1
    2558:	340c0001 	li	t4,0x1
    255c:	116c0052 	beq	t3,t4,26a8 <inst_error>
    2560:	00000000 	nop
/home/cs/nscscc2019/nscscc2019_release_v0.01/func_test_v0.01/soft/func/inst/n6_lw.S:11
    2564:	3c097173 	lui	t1,0x7173
    2568:	35297c10 	ori	t1,t1,0x7c10
    256c:	3c08800d 	lui	t0,0x800d
    2570:	3508f660 	ori	t0,t0,0xf660
    2574:	3c037173 	lui	v1,0x7173
    2578:	34637c10 	ori	v1,v1,0x7c10
    257c:	ad0902e4 	sw	t1,740(t0)
    2580:	25040004 	addiu	a0,t0,4
    2584:	2505fff8 	addiu	a1,t0,-8
    2588:	ac8402e4 	sw	a0,740(a0)
    258c:	aca502e4 	sw	a1,740(a1)
    2590:	8d0202e4 	lw	v0,740(t0)
    2594:	8c8602e4 	lw	a2,740(a0)
    2598:	8ca402e4 	lw	a0,740(a1)
    259c:	8ca602e4 	lw	a2,740(a1)
    25a0:	00435826 	xor	t3,v0,v1
    25a4:	340c0001 	li	t4,0x1
    25a8:	116c003f 	beq	t3,t4,26a8 <inst_error>
    25ac:	00000000 	nop
/home/cs/nscscc2019/nscscc2019_release_v0.01/func_test_v0.01/soft/func/inst/n6_lw.S:12
    25b0:	3c090368 	lui	t1,0x368
    25b4:	35292420 	ori	t1,t1,0x2420
    25b8:	3c08800d 	lui	t0,0x800d
    25bc:	350824e4 	ori	t0,t0,0x24e4
    25c0:	3c030368 	lui	v1,0x368
    25c4:	34632420 	ori	v1,v1,0x2420
    25c8:	ad091680 	sw	t1,5760(t0)
    25cc:	25040004 	addiu	a0,t0,4
    25d0:	2505fff8 	addiu	a1,t0,-8
    25d4:	ac841680 	sw	a0,5760(a0)
    25d8:	aca51680 	sw	a1,5760(a1)
    25dc:	8d021680 	lw	v0,5760(t0)
    25e0:	8c861680 	lw	a2,5760(a0)
    25e4:	8ca41680 	lw	a0,5760(a1)
    25e8:	8ca61680 	lw	a2,5760(a1)
    25ec:	00435826 	xor	t3,v0,v1
    25f0:	340c0001 	li	t4,0x1
    25f4:	116c002c 	beq	t3,t4,26a8 <inst_error>
    25f8:	00000000 	nop
/home/cs/nscscc2019/nscscc2019_release_v0.01/func_test_v0.01/soft/func/inst/n6_lw.S:13
    25fc:	3c096f59 	lui	t1,0x6f59
    2600:	3529f5d3 	ori	t1,t1,0xf5d3
    2604:	3c08800d 	lui	t0,0x800d
    2608:	3508abdc 	ori	t0,t0,0xabdc
    260c:	3c036f59 	lui	v1,0x6f59
    2610:	3463f5d3 	ori	v1,v1,0xf5d3
    2614:	ad0901b0 	sw	t1,432(t0)
    2618:	25040004 	addiu	a0,t0,4
    261c:	2505fff8 	addiu	a1,t0,-8
    2620:	ac8401b0 	sw	a0,432(a0)
    2624:	aca501b0 	sw	a1,432(a1)
    2628:	8d0201b0 	lw	v0,432(t0)
    262c:	8c8601b0 	lw	a2,432(a0)
    2630:	8ca401b0 	lw	a0,432(a1)
    2634:	8ca601b0 	lw	a2,432(a1)
    2638:	00435826 	xor	t3,v0,v1
    263c:	340c0001 	li	t4,0x1
    2640:	116c0019 	beq	t3,t4,26a8 <inst_error>
    2644:	00000000 	nop
/home/cs/nscscc2019/nscscc2019_release_v0.01/func_test_v0.01/soft/func/inst/n6_lw.S:14
    2648:	3c0956d9 	lui	t1,0x56d9
    264c:	35290696 	ori	t1,t1,0x696
    2650:	3c08800d 	lui	t0,0x800d
    2654:	350828b4 	ori	t0,t0,0x28b4
    2658:	3c0356d9 	lui	v1,0x56d9
    265c:	34630696 	ori	v1,v1,0x696
    2660:	ad091cf4 	sw	t1,7412(t0)
    2664:	25040004 	addiu	a0,t0,4
    2668:	2505fff8 	addiu	a1,t0,-8
    266c:	ac841cf4 	sw	a0,7412(a0)
    2670:	aca51cf4 	sw	a1,7412(a1)
    2674:	8d021cf4 	lw	v0,7412(t0)
    2678:	8c861cf4 	lw	a2,7412(a0)
    267c:	8ca41cf4 	lw	a0,7412(a1)
    2680:	8ca61cf4 	lw	a2,7412(a1)
    2684:	00435826 	xor	t3,v0,v1
    2688:	340c0001 	li	t4,0x1
    268c:	116c0006 	beq	t3,t4,26a8 <inst_error>
    2690:	00000000 	nop
/home/cs/nscscc2019/nscscc2019_release_v0.01/func_test_v0.01/soft/func/inst/n6_lw.S:76
    2694:	02405026 	xor	t2,s2,zero
/home/cs/nscscc2019/nscscc2019_release_v0.01/func_test_v0.01/soft/func/inst/n6_lw.S:77
    2698:	34090001 	li	t1,0x1
/home/cs/nscscc2019/nscscc2019_release_v0.01/func_test_v0.01/soft/func/inst/n6_lw.S:78
    269c:	11490002 	beq	t2,t1,26a8 <inst_error>
/home/cs/nscscc2019/nscscc2019_release_v0.01/func_test_v0.01/soft/func/inst/n6_lw.S:80
    26a0:	00000000 	nop
/home/cs/nscscc2019/nscscc2019_release_v0.01/func_test_v0.01/soft/func/inst/n6_lw.S:82
    26a4:	26730001 	addiu	s3,s3,1

000026a8 <inst_error>:
/home/cs/nscscc2019/nscscc2019_release_v0.01/func_test_v0.01/soft/func/inst/n6_lw.S:86
    26a8:	340a0018 	li	t2,0x18
/home/cs/nscscc2019/nscscc2019_release_v0.01/func_test_v0.01/soft/func/inst/n6_lw.S:87
    26ac:	01504804 	sllv	t1,s0,t2
/home/cs/nscscc2019/nscscc2019_release_v0.01/func_test_v0.01/soft/func/inst/n6_lw.S:89
    26b0:	01334025 	or	t0,t1,s3
/home/cs/nscscc2019/nscscc2019_release_v0.01/func_test_v0.01/soft/func/inst/n6_lw.S:90
    26b4:	ae280000 	sw	t0,0(s1)
/home/cs/nscscc2019/nscscc2019_release_v0.01/func_test_v0.01/soft/func/inst/n6_lw.S:91
    26b8:	03e00008 	jr	ra
/home/cs/nscscc2019/nscscc2019_release_v0.01/func_test_v0.01/soft/func/inst/n6_lw.S:92
    26bc:	00000000 	nop

000026c0 <n7_or_test>:
/home/cs/nscscc2019/nscscc2019_release_v0.01/func_test_v0.01/soft/func/inst/n7_or.S:7
    26c0:	26100001 	addiu	s0,s0,1
/home/cs/nscscc2019/nscscc2019_release_v0.01/func_test_v0.01/soft/func/inst/n7_or.S:8
    26c4:	24120000 	li	s2,0
/home/cs/nscscc2019/nscscc2019_release_v0.01/func_test_v0.01/soft/func/inst/n7_or.S:10
    26c8:	3c0850e4 	lui	t0,0x50e4
    26cc:	35081484 	ori	t0,t0,0x1484
    26d0:	3c09ad35 	lui	t1,0xad35
    26d4:	3529ea94 	ori	t1,t1,0xea94
    26d8:	3c03fdf5 	lui	v1,0xfdf5
    26dc:	3463fe94 	ori	v1,v1,0xfe94
    26e0:	01091025 	or	v0,t0,t1
    26e4:	00435826 	xor	t3,v0,v1
    26e8:	340c0001 	li	t4,0x1
    26ec:	116c0032 	beq	t3,t4,27b8 <inst_error>
    26f0:	00000000 	nop
/home/cs/nscscc2019/nscscc2019_release_v0.01/func_test_v0.01/soft/func/inst/n7_or.S:11
    26f4:	3c08bbbf 	lui	t0,0xbbbf
    26f8:	3508afe4 	ori	t0,t0,0xafe4
    26fc:	3c09c8e9 	lui	t1,0xc8e9
    2700:	35294400 	ori	t1,t1,0x4400
    2704:	3c03fbff 	lui	v1,0xfbff
    2708:	3463efe4 	ori	v1,v1,0xefe4
    270c:	01091025 	or	v0,t0,t1
    2710:	00435826 	xor	t3,v0,v1
    2714:	340c0001 	li	t4,0x1
    2718:	116c0027 	beq	t3,t4,27b8 <inst_error>
    271c:	00000000 	nop
/home/cs/nscscc2019/nscscc2019_release_v0.01/func_test_v0.01/soft/func/inst/n7_or.S:12
    2720:	3c08f293 	lui	t0,0xf293
    2724:	3508f134 	ori	t0,t0,0xf134
    2728:	3c09a7cc 	lui	t1,0xa7cc
    272c:	3529798a 	ori	t1,t1,0x798a
    2730:	3c03f7df 	lui	v1,0xf7df
    2734:	3463f9be 	ori	v1,v1,0xf9be
    2738:	01091025 	or	v0,t0,t1
    273c:	00435826 	xor	t3,v0,v1
    2740:	340c0001 	li	t4,0x1
    2744:	116c001c 	beq	t3,t4,27b8 <inst_error>
    2748:	00000000 	nop
/home/cs/nscscc2019/nscscc2019_release_v0.01/func_test_v0.01/soft/func/inst/n7_or.S:13
    274c:	3c08fb4e 	lui	t0,0xfb4e
    2750:	3508ee5e 	ori	t0,t0,0xee5e
    2754:	3c096696 	lui	t1,0x6696
    2758:	35298a90 	ori	t1,t1,0x8a90
    275c:	3c03ffde 	lui	v1,0xffde
    2760:	3463eede 	ori	v1,v1,0xeede
    2764:	01091025 	or	v0,t0,t1
    2768:	00435826 	xor	t3,v0,v1
    276c:	340c0001 	li	t4,0x1
    2770:	116c0011 	beq	t3,t4,27b8 <inst_error>
    2774:	00000000 	nop
/home/cs/nscscc2019/nscscc2019_release_v0.01/func_test_v0.01/soft/func/inst/n7_or.S:14
    2778:	3c08bc98 	lui	t0,0xbc98
    277c:	35088af7 	ori	t0,t0,0x8af7
    2780:	3c09986e 	lui	t1,0x986e
    2784:	35292136 	ori	t1,t1,0x2136
    2788:	3c03bcfe 	lui	v1,0xbcfe
    278c:	3463abf7 	ori	v1,v1,0xabf7
    2790:	01091025 	or	v0,t0,t1
    2794:	00435826 	xor	t3,v0,v1
    2798:	340c0001 	li	t4,0x1
    279c:	116c0006 	beq	t3,t4,27b8 <inst_error>
    27a0:	00000000 	nop
/home/cs/nscscc2019/nscscc2019_release_v0.01/func_test_v0.01/soft/func/inst/n7_or.S:313
    27a4:	02405026 	xor	t2,s2,zero
/home/cs/nscscc2019/nscscc2019_release_v0.01/func_test_v0.01/soft/func/inst/n7_or.S:314
    27a8:	34090001 	li	t1,0x1
/home/cs/nscscc2019/nscscc2019_release_v0.01/func_test_v0.01/soft/func/inst/n7_or.S:315
    27ac:	11490002 	beq	t2,t1,27b8 <inst_error>
/home/cs/nscscc2019/nscscc2019_release_v0.01/func_test_v0.01/soft/func/inst/n7_or.S:317
    27b0:	00000000 	nop
/home/cs/nscscc2019/nscscc2019_release_v0.01/func_test_v0.01/soft/func/inst/n7_or.S:319
    27b4:	26730001 	addiu	s3,s3,1

000027b8 <inst_error>:
/home/cs/nscscc2019/nscscc2019_release_v0.01/func_test_v0.01/soft/func/inst/n7_or.S:323
    27b8:	340a0018 	li	t2,0x18
/home/cs/nscscc2019/nscscc2019_release_v0.01/func_test_v0.01/soft/func/inst/n7_or.S:324
    27bc:	01504804 	sllv	t1,s0,t2
/home/cs/nscscc2019/nscscc2019_release_v0.01/func_test_v0.01/soft/func/inst/n7_or.S:326
    27c0:	01334025 	or	t0,t1,s3
/home/cs/nscscc2019/nscscc2019_release_v0.01/func_test_v0.01/soft/func/inst/n7_or.S:327
    27c4:	ae280000 	sw	t0,0(s1)
/home/cs/nscscc2019/nscscc2019_release_v0.01/func_test_v0.01/soft/func/inst/n7_or.S:328
    27c8:	03e00008 	jr	ra
/home/cs/nscscc2019/nscscc2019_release_v0.01/func_test_v0.01/soft/func/inst/n7_or.S:329
    27cc:	00000000 	nop
    27d0:	800b7f70 	lb	t3,32624(zero)
	...
